
hello.RV32.bare.elf:     file format elf32-littleriscv
hello.RV32.bare.elf
architecture: riscv:rv32, flags 0x00000112:
EXEC_P, HAS_SYMS, D_PAGED
start address 0x80000000

Program Header:
0x70000003 off    0x00008e9d vaddr 0x00000000 paddr 0x00000000 align 2**0
         filesz 0x00000025 memsz 0x00000000 flags r--
    LOAD off    0x00000000 vaddr 0x7ffff000 paddr 0x7ffff000 align 2**12
         filesz 0x00001044 memsz 0x00001044 flags r-x
    LOAD off    0x00002000 vaddr 0x80001000 paddr 0x80001000 align 2**12
         filesz 0x00006e70 memsz 0x00006ec4 flags rwx

Sections:
Idx Name          Size      VMA       LMA       File off  Algn
  0 .text         0000442c  80002094  80002094  00003094  2**2
                  CONTENTS, ALLOC, LOAD, READONLY, CODE
  1 .rodata       00000112  800064c0  800064c0  000074c0  2**2
                  CONTENTS, ALLOC, LOAD, READONLY, DATA
  2 .eh_frame     00000040  800075d4  800075d4  000085d4  2**2
                  CONTENTS, ALLOC, LOAD, DATA
  3 .init_array   0000000c  80007614  80007614  00008614  2**2
                  CONTENTS, ALLOC, LOAD, DATA
  4 .fini_array   00000004  80007620  80007620  00008620  2**2
                  CONTENTS, ALLOC, LOAD, DATA
  5 .data         00000830  80007628  80007628  00008628  2**3
                  CONTENTS, ALLOC, LOAD, DATA
  6 .sdata        00000018  80007e58  80007e58  00008e58  2**2
                  CONTENTS, ALLOC, LOAD, DATA
  7 .sbss         00000010  80007e70  80007e70  00008e70  2**2
                  ALLOC
  8 .bss          00000044  80007e80  80007e80  00008e70  2**2
                  ALLOC
  9 .text.init    00000044  80000000  80000000  00001000  2**0
                  CONTENTS, ALLOC, LOAD, READONLY, CODE
 10 .tohost       00000008  80001000  80001000  00002000  2**6
                  CONTENTS, ALLOC, LOAD, DATA
 11 .comment      0000002d  00000000  00000000  00008e70  2**0
                  CONTENTS, READONLY
 12 .riscv.attributes 00000025  00000000  00000000  00008e9d  2**0
                  CONTENTS, READONLY
 13 .debug_aranges 000000f8  00000000  00000000  00008ec8  2**3
                  CONTENTS, READONLY, DEBUGGING, OCTETS
 14 .debug_info   00001da8  00000000  00000000  00008fc0  2**0
                  CONTENTS, READONLY, DEBUGGING, OCTETS
 15 .debug_abbrev 00000870  00000000  00000000  0000ad68  2**0
                  CONTENTS, READONLY, DEBUGGING, OCTETS
 16 .debug_line   00001897  00000000  00000000  0000b5d8  2**0
                  CONTENTS, READONLY, DEBUGGING, OCTETS
 17 .debug_frame  0000047c  00000000  00000000  0000ce70  2**2
                  CONTENTS, READONLY, DEBUGGING, OCTETS
 18 .debug_str    000007cf  00000000  00000000  0000d2ec  2**0
                  CONTENTS, READONLY, DEBUGGING, OCTETS
 19 .debug_line_str 0000027e  00000000  00000000  0000dabb  2**0
                  CONTENTS, READONLY, DEBUGGING, OCTETS
 20 .debug_loclists 00000fea  00000000  00000000  0000dd39  2**0
                  CONTENTS, READONLY, DEBUGGING, OCTETS
 21 .debug_rnglists 000001ab  00000000  00000000  0000ed23  2**0
                  CONTENTS, READONLY, DEBUGGING, OCTETS
SYMBOL TABLE:
80002094 l    d  .text	00000000 .text
800064c0 l    d  .rodata	00000000 .rodata
800075d4 l    d  .eh_frame	00000000 .eh_frame
80007614 l    d  .init_array	00000000 .init_array
80007620 l    d  .fini_array	00000000 .fini_array
80007628 l    d  .data	00000000 .data
80007e58 l    d  .sdata	00000000 .sdata
80007e70 l    d  .sbss	00000000 .sbss
80007e80 l    d  .bss	00000000 .bss
80000000 l    d  .text.init	00000000 .text.init
80001000 l    d  .tohost	00000000 .tohost
00000000 l    d  .comment	00000000 .comment
00000000 l    d  .riscv.attributes	00000000 .riscv.attributes
00000000 l    d  .debug_aranges	00000000 .debug_aranges
00000000 l    d  .debug_info	00000000 .debug_info
00000000 l    d  .debug_abbrev	00000000 .debug_abbrev
00000000 l    d  .debug_line	00000000 .debug_line
00000000 l    d  .debug_frame	00000000 .debug_frame
00000000 l    d  .debug_str	00000000 .debug_str
00000000 l    d  .debug_line_str	00000000 .debug_line_str
00000000 l    d  .debug_loclists	00000000 .debug_loclists
00000000 l    d  .debug_rnglists	00000000 .debug_rnglists
00000000 l    df *ABS*	00000000 exit.c
00000000 l    df *ABS*	00000000 __call_atexit.c
800020c4 l     F .text	00000018 register_fini
00000000 l    df *ABS*	00000000 crt0.o
00000000 l    df *ABS*	00000000 crtstuff.c
800075d4 l     O .eh_frame	00000000 __EH_FRAME_BEGIN__
80002128 l     F .text	00000000 __do_global_dtors_aux
80007e80 l     O .bss	00000001 completed.1
80007620 l     O .fini_array	00000000 __do_global_dtors_aux_fini_array_entry
80002170 l     F .text	00000000 frame_dummy
80007e84 l     O .bss	00000018 object.0
80007618 l     O .init_array	00000000 __frame_dummy_init_array_entry
00000000 l    df *ABS*	00000000 startup.o
80000034 l       .text.init	00000000 zinit
00000000 l    df *ABS*	00000000 hello.c
00000000 l    df *ABS*	00000000 syscalls.c
00000000 l    df *ABS*	00000000 ns16550.c
80007e60 l     O .sdata	00000004 pio
800026b4 l     F .text	000000d8 ns16550_init
00000000 l    df *ABS*	00000000 riscv_counters.c
00000000 l    df *ABS*	00000000 libgcc2.c
00000000 l    df *ABS*	00000000 libgcc2.c
00000000 l    df *ABS*	00000000 libgcc2.c
00000000 l    df *ABS*	00000000 errno.c
00000000 l    df *ABS*	00000000 impure.c
80007628 l     O .data	00000428 impure_data
00000000 l    df *ABS*	00000000 init.c
00000000 l    df *ABS*	00000000 lib_a-memset.o
00000000 l    df *ABS*	00000000 puts.c
00000000 l    df *ABS*	00000000 strlen.c
00000000 l    df *ABS*	00000000 findfp.c
8000382c l     F .text	00000008 __fp_lock
80003840 l     F .text	00000008 __fp_unlock
80003848 l     F .text	00000184 __sinit.part.0
00000000 l    df *ABS*	00000000 fini.c
00000000 l    df *ABS*	00000000 fvwrite.c
00000000 l    df *ABS*	00000000 fwalk.c
00000000 l    df *ABS*	00000000 mallocr.c
00000000 l    df *ABS*	00000000 memchr.c
00000000 l    df *ABS*	00000000 memcpy.c
00000000 l    df *ABS*	00000000 memmove-stub.c
00000000 l    df *ABS*	00000000 mlock.c
00000000 l    df *ABS*	00000000 mallocr.c
00000000 l    df *ABS*	00000000 sbrkr.c
00000000 l    df *ABS*	00000000 stdio.c
00000000 l    df *ABS*	00000000 writer.c
00000000 l    df *ABS*	00000000 wsetup.c
00000000 l    df *ABS*	00000000 atexit.c
00000000 l    df *ABS*	00000000 closer.c
00000000 l    df *ABS*	00000000 fclose.c
00000000 l    df *ABS*	00000000 fflush.c
00000000 l    df *ABS*	00000000 mallocr.c
00000000 l    df *ABS*	00000000 lseekr.c
00000000 l    df *ABS*	00000000 makebuf.c
00000000 l    df *ABS*	00000000 readr.c
00000000 l    df *ABS*	00000000 reent.c
00000000 l    df *ABS*	00000000 __atexit.c
00000000 l    df *ABS*	00000000 fstatr.c
00000000 l    df *ABS*	00000000 isattyr.c
00000000 l    df *ABS*	00000000 _exit.c
00000000 l    df *ABS*	00000000 crtstuff.c
80007610 l     O .eh_frame	00000000 __FRAME_END__
80007624 l       .fini_array	00000000 __fini_array_end
80007620 l       .fini_array	00000000 __fini_array_start
80007620 l       .init_array	00000000 __init_array_end
80007614 l       .init_array	00000000 __preinit_array_end
80007614 l       .init_array	00000000 __init_array_start
80007614 l       .init_array	00000000 __preinit_array_start
8000646c g     F .text	00000050 _isatty_r
800061cc g     F .text	00000094 cleanup_glue
80002690 g     F .text	00000024 _getpid
800035a4 g     F .text	000000d0 _puts_r
80005eac g     F .text	0000005c _lseek_r
80002b64 g     F .text	00000478 .hidden __divdi3
80002b0c g     F .text	00000058 io_write64
80007e28 g       *ABS*	00000000 __global_pointer$
800053b0 g     F .text	00000078 __sseek
80003b74 g     F .text	00000010 __sinit
800039cc g     F .text	0000006c __sfmoreglue
80004d18 g     F .text	00000004 __malloc_unlock
80004bf8 g     F .text	0000011c memmove
80003b64 g     F .text	00000010 _cleanup
80002a00 g     F .text	00000030 addr_to_pointer
8000342c g     F .text	00000008 __errno
8000289c g     F .text	0000006c read_cycle
80006414 g     F .text	00000058 _fstat_r
80007e7c g     O .sbss	00000004 errno
80005320 g     F .text	00000008 __seofread
80007e58 g       .sdata	00000000 __SDATA_BEGIN__
80004a54 g     F .text	000001a4 memcpy
80002ac0 g     F .text	0000004c io_read64
80003834 g     F .text	0000000c _cleanup_r
80003674 g     F .text	0000000c puts
8000278c g     F .text	00000038 ns16550_rxready
800025d4 g     F .text	00000040 _fstat
800023bc g     F .text	000000ac sleep
80007e78 g     O .sbss	00000004 __malloc_top_pad
8000280c g     F .text	00000054 ns16550_txchar
80007e5c g     O .sdata	00000000 .hidden __dso_handle
80003c10 g     F .text	0000049c __sfvwrite_r
80005274 g     F .text	00000050 _sbrk_r
80006170 g     F .text	0000005c _read_r
80005630 g     F .text	00000110 _fclose_r
800059f8 g     F .text	0000007c fflush
80007e74 g     O .sbss	00000004 __malloc_max_sbrked_mem
80002614 g     F .text	0000003c _isatty
80007e58 g     O .sdata	00000004 _global_impure_ptr
80004d1c g     F .text	00000558 _realloc_r
80003434 g     F .text	00000094 __libc_init_array
80002468 g     F .text	0000003c _sbrk
80003b94 g     F .text	00000010 __fp_lock_all
80002908 g     F .text	0000006c read_time
80003bb4 g     F .text	0000005c __libc_fini_array
80006260 g     F .text	0000011c _reclaim_reent
80002258 g     F .text	0000006c write
80003b84 g     F .text	00000004 __sfp_lock_acquire
80004990 g     F .text	000000c4 memchr
80005ba8 g     F .text	00000304 _free_r
8000370c g     F .text	00000120 __call_exitprocs
80007e68 g     O .sdata	00000004 __malloc_sbrk_base
800020dc g     F .text	0000004c _start
8000254c g     F .text	00000044 _lseek
800021cc g     F .text	0000008c read
8000637c g     F .text	00000098 __register_exitproc
80002a74 g     F .text	0000004c io_write32
80002974 g     F .text	0000006c read_instret
80007e9c g     O .bss	00000028 __malloc_current_mallinfo
800055e0 g     F .text	00000050 _close_r
8000548c g     F .text	00000140 __swsetup_r
80003a38 g     F .text	0000012c __sfp
80007ec4 g       .tohost	00000000 __BSS_END__
80002a30 g     F .text	00000044 io_read32
80007a50 g     O .data	00000408 __malloc_av_
80003b90 g     F .text	00000004 __sinit_lock_release
800052c4 g     F .text	0000005c __sread
80004d14 g     F .text	00000004 __malloc_lock
80005998 g     F .text	00000060 _fflush_r
800022c4 g     F .text	000000f8 gettimeofday
80007e70 g       .sbss	00000000 __bss_start
800034c8 g     F .text	000000dc memset
80002190 g     F .text	0000003c main
80007e70 g     O .sbss	00000004 __malloc_max_total_mem
80005428 g     F .text	00000008 __sclose
80005740 g     F .text	0000000c fclose
80004204 g     F .text	0000078c _malloc_r
800040ac g     F .text	000000a4 _fwalk
80005a74 g     F .text	00000134 _malloc_trim_r
800064d0 g     O .rodata	00000100 .hidden __clz_tab
800055cc g     F .text	00000014 atexit
80005430 g     F .text	0000005c _write_r
80007e64 g     O .sdata	00000004 _impure_ptr
8000574c g     F .text	0000024c __sflush_r
800029e0 g     F .text	00000020 fence
80003ba4 g     F .text	00000010 __fp_unlock_all
80007ec4 g       .bss	00000000 __startup_save
80006098 g     F .text	000000d8 __swhatbuf_r
80007628 g       .data	00000000 __DATA_BEGIN__
80000000 g       .text.init	00000000 _reset
800024a4 g     F .text	0000006c _write
80007e70 g       .sdata	00000000 _edata
80007ec4 g       .tohost	00000000 _end
80001000 g       .tohost	00000000 tohost
80005328 g     F .text	00000088 __swrite
80007e6c g     O .sdata	00000004 __malloc_trim_threshold
80002094 g     F .text	00000030 exit
80004150 g     F .text	000000b4 _fwalk_reent
80002650 g     F .text	00000040 _kill
80003b88 g     F .text	00000004 __sfp_lock_release
80002590 g     F .text	00000044 _read
80002fdc g     F .text	00000450 .hidden __moddi3
800064bc g     F .text	00000004 _exit
80005f08 g     F .text	00000190 __smakebuf_r
80003680 g     F .text	0000008c strlen
80002860 g     F .text	0000003c ns16550_flush
800027c4 g     F .text	00000048 ns16550_rxchar
80002510 g     F .text	0000003c _close
80003b8c g     F .text	00000004 __sinit_lock_acquire



Disassembly of section .text:

80002094 <exit>:
80002094:	ff010113          	addi	sp,sp,-16
80002098:	00000593          	li	a1,0
8000209c:	00812423          	sw	s0,8(sp)
800020a0:	00112623          	sw	ra,12(sp)
800020a4:	00050413          	mv	s0,a0
800020a8:	664010ef          	jal	ra,8000370c <__call_exitprocs>
800020ac:	0301a503          	lw	a0,48(gp) # 80007e58 <_global_impure_ptr>
800020b0:	03c52783          	lw	a5,60(a0)
800020b4:	00078463          	beqz	a5,800020bc <exit+0x28>
800020b8:	000780e7          	jalr	a5
800020bc:	00040513          	mv	a0,s0
800020c0:	3fc040ef          	jal	ra,800064bc <_exit>

800020c4 <register_fini>:
800020c4:	00000793          	li	a5,0
800020c8:	00078863          	beqz	a5,800020d8 <register_fini+0x14>
800020cc:	00002517          	auipc	a0,0x2
800020d0:	ae850513          	addi	a0,a0,-1304 # 80003bb4 <__libc_fini_array>
800020d4:	4f80306f          	j	800055cc <atexit>
800020d8:	00008067          	ret

800020dc <_start>:
800020dc:	00006197          	auipc	gp,0x6
800020e0:	d4c18193          	addi	gp,gp,-692 # 80007e28 <__global_pointer$>
800020e4:	04818513          	addi	a0,gp,72 # 80007e70 <__malloc_max_total_mem>
800020e8:	09c18613          	addi	a2,gp,156 # 80007ec4 <__BSS_END__>
800020ec:	40a60633          	sub	a2,a2,a0
800020f0:	00000593          	li	a1,0
800020f4:	3d4010ef          	jal	ra,800034c8 <memset>
800020f8:	00003517          	auipc	a0,0x3
800020fc:	4d450513          	addi	a0,a0,1236 # 800055cc <atexit>
80002100:	00050863          	beqz	a0,80002110 <_start+0x34>
80002104:	00002517          	auipc	a0,0x2
80002108:	ab050513          	addi	a0,a0,-1360 # 80003bb4 <__libc_fini_array>
8000210c:	4c0030ef          	jal	ra,800055cc <atexit>
80002110:	324010ef          	jal	ra,80003434 <__libc_init_array>
80002114:	00012503          	lw	a0,0(sp)
80002118:	00410593          	addi	a1,sp,4
8000211c:	00000613          	li	a2,0
80002120:	070000ef          	jal	ra,80002190 <main>
80002124:	f71ff06f          	j	80002094 <exit>

80002128 <__do_global_dtors_aux>:
80002128:	ff010113          	addi	sp,sp,-16
8000212c:	00812423          	sw	s0,8(sp)
80002130:	05818413          	addi	s0,gp,88 # 80007e80 <completed.1>
80002134:	00044783          	lbu	a5,0(s0)
80002138:	00112623          	sw	ra,12(sp)
8000213c:	02079263          	bnez	a5,80002160 <__do_global_dtors_aux+0x38>
80002140:	00000793          	li	a5,0
80002144:	00078a63          	beqz	a5,80002158 <__do_global_dtors_aux+0x30>
80002148:	00005517          	auipc	a0,0x5
8000214c:	48c50513          	addi	a0,a0,1164 # 800075d4 <__EH_FRAME_BEGIN__>
80002150:	00000097          	auipc	ra,0x0
80002154:	000000e7          	jalr	zero # 0 <_reset-0x80000000>
80002158:	00100793          	li	a5,1
8000215c:	00f40023          	sb	a5,0(s0)
80002160:	00c12083          	lw	ra,12(sp)
80002164:	00812403          	lw	s0,8(sp)
80002168:	01010113          	addi	sp,sp,16
8000216c:	00008067          	ret

80002170 <frame_dummy>:
80002170:	00000793          	li	a5,0
80002174:	00078c63          	beqz	a5,8000218c <frame_dummy+0x1c>
80002178:	05c18593          	addi	a1,gp,92 # 80007e84 <object.0>
8000217c:	00005517          	auipc	a0,0x5
80002180:	45850513          	addi	a0,a0,1112 # 800075d4 <__EH_FRAME_BEGIN__>
80002184:	00000317          	auipc	t1,0x0
80002188:	00000067          	jr	zero # 0 <_reset-0x80000000>
8000218c:	00008067          	ret

80002190 <main>:
#include <stdio.h>

int main (int argc, char *argv[])
{
80002190:	fe010113          	addi	sp,sp,-32
80002194:	00112e23          	sw	ra,28(sp)
80002198:	00812c23          	sw	s0,24(sp)
8000219c:	02010413          	addi	s0,sp,32
800021a0:	fea42623          	sw	a0,-20(s0)
800021a4:	feb42423          	sw	a1,-24(s0)
    printf ("Hello World!\n");
800021a8:	00004517          	auipc	a0,0x4
800021ac:	31850513          	addi	a0,a0,792 # 800064c0 <_exit+0x4>
800021b0:	4c4010ef          	jal	ra,80003674 <puts>
    return 0;
800021b4:	00000793          	li	a5,0
}
800021b8:	00078513          	mv	a0,a5
800021bc:	01c12083          	lw	ra,28(sp)
800021c0:	01812403          	lw	s0,24(sp)
800021c4:	02010113          	addi	sp,sp,32
800021c8:	00008067          	ret

800021cc <read>:
#include <sys/time.h>
#include "ns16550.h"

#ifndef __linux__

int read(int file, char *ptr, int len) {
800021cc:	fd010113          	addi	sp,sp,-48
800021d0:	02112623          	sw	ra,44(sp)
800021d4:	02812423          	sw	s0,40(sp)
800021d8:	03010413          	addi	s0,sp,48
800021dc:	fca42e23          	sw	a0,-36(s0)
800021e0:	fcb42c23          	sw	a1,-40(s0)
800021e4:	fcc42a23          	sw	a2,-44(s0)
  int todo;
  if(len == 0)
800021e8:	fd442783          	lw	a5,-44(s0)
800021ec:	00079663          	bnez	a5,800021f8 <read+0x2c>
    return 0;
800021f0:	00000793          	li	a5,0
800021f4:	0500006f          	j	80002244 <read+0x78>
#ifdef CONSOLE_UART
  todo = 0;
800021f8:	fe042623          	sw	zero,-20(s0)
  while (ns16550_rxready() && (todo < len)) {
800021fc:	02c0006f          	j	80002228 <read+0x5c>
    *ptr++ = ns16550_rxchar();
80002200:	5c4000ef          	jal	ra,800027c4 <ns16550_rxchar>
80002204:	00050693          	mv	a3,a0
80002208:	fd842783          	lw	a5,-40(s0)
8000220c:	00178713          	addi	a4,a5,1
80002210:	fce42c23          	sw	a4,-40(s0)
80002214:	0ff6f713          	zext.b	a4,a3
80002218:	00e78023          	sb	a4,0(a5)
    todo++;
8000221c:	fec42783          	lw	a5,-20(s0)
80002220:	00178793          	addi	a5,a5,1
80002224:	fef42623          	sw	a5,-20(s0)
  while (ns16550_rxready() && (todo < len)) {
80002228:	564000ef          	jal	ra,8000278c <ns16550_rxready>
8000222c:	00050793          	mv	a5,a0
80002230:	00078863          	beqz	a5,80002240 <read+0x74>
80002234:	fec42703          	lw	a4,-20(s0)
80002238:	fd442783          	lw	a5,-44(s0)
8000223c:	fcf742e3          	blt	a4,a5,80002200 <read+0x34>
  }
#endif
  return todo;
80002240:	fec42783          	lw	a5,-20(s0)
}
80002244:	00078513          	mv	a0,a5
80002248:	02c12083          	lw	ra,44(sp)
8000224c:	02812403          	lw	s0,40(sp)
80002250:	03010113          	addi	sp,sp,48
80002254:	00008067          	ret

80002258 <write>:

int write(int file, char *ptr, int len) {
80002258:	fd010113          	addi	sp,sp,-48
8000225c:	02112623          	sw	ra,44(sp)
80002260:	02812423          	sw	s0,40(sp)
80002264:	03010413          	addi	s0,sp,48
80002268:	fca42e23          	sw	a0,-36(s0)
8000226c:	fcb42c23          	sw	a1,-40(s0)
80002270:	fcc42a23          	sw	a2,-44(s0)
  int todo;

#ifdef CONSOLE_UART
  for (todo = 0; todo < len; todo++) {
80002274:	fe042623          	sw	zero,-20(s0)
80002278:	0280006f          	j	800022a0 <write+0x48>
    ns16550_txchar (*ptr++);
8000227c:	fd842783          	lw	a5,-40(s0)
80002280:	00178713          	addi	a4,a5,1
80002284:	fce42c23          	sw	a4,-40(s0)
80002288:	0007c783          	lbu	a5,0(a5)
8000228c:	00078513          	mv	a0,a5
80002290:	57c000ef          	jal	ra,8000280c <ns16550_txchar>
  for (todo = 0; todo < len; todo++) {
80002294:	fec42783          	lw	a5,-20(s0)
80002298:	00178793          	addi	a5,a5,1
8000229c:	fef42623          	sw	a5,-20(s0)
800022a0:	fec42703          	lw	a4,-20(s0)
800022a4:	fd442783          	lw	a5,-44(s0)
800022a8:	fcf74ae3          	blt	a4,a5,8000227c <write+0x24>
  }
#endif
  return len;
800022ac:	fd442783          	lw	a5,-44(s0)
}
800022b0:	00078513          	mv	a0,a5
800022b4:	02c12083          	lw	ra,44(sp)
800022b8:	02812403          	lw	s0,40(sp)
800022bc:	03010113          	addi	sp,sp,48
800022c0:	00008067          	ret

800022c4 <gettimeofday>:

#define CLOCK_PERIOD  (100000000)

int gettimeofday(struct timeval *ptimeval, void *ptimezone)
{
800022c4:	fd010113          	addi	sp,sp,-48
800022c8:	02112623          	sw	ra,44(sp)
800022cc:	02812423          	sw	s0,40(sp)
800022d0:	03010413          	addi	s0,sp,48
800022d4:	fca42e23          	sw	a0,-36(s0)
800022d8:	fcb42c23          	sw	a1,-40(s0)
    if (ptimeval)
800022dc:	fdc42583          	lw	a1,-36(s0)
800022e0:	0c058263          	beqz	a1,800023a4 <gettimeofday+0xe0>
#if __riscv_xlen == 64
	asm ("rdtime %0" : "=r" (tv));
#else
	unsigned int tvh;
	unsigned int tvl;
	asm ("rdtime %0;"
800022e4:	c0102573          	rdtime	a0
800022e8:	c81025f3          	rdtimeh	a1
800022ec:	fea42623          	sw	a0,-20(s0)
800022f0:	feb42423          	sw	a1,-24(s0)
	    "rdtimeh %1 " : "=r" (tvl), "=r" (tvh));
	tv = ((long long)tvh) << 32 | tvl;
800022f4:	fe842583          	lw	a1,-24(s0)
800022f8:	00058813          	mv	a6,a1
800022fc:	00000893          	li	a7,0
80002300:	00081793          	slli	a5,a6,0x0
80002304:	00000713          	li	a4,0
80002308:	fec42583          	lw	a1,-20(s0)
8000230c:	00058613          	mv	a2,a1
80002310:	00000693          	li	a3,0
80002314:	00c765b3          	or	a1,a4,a2
80002318:	feb42023          	sw	a1,-32(s0)
8000231c:	00d7e7b3          	or	a5,a5,a3
80002320:	fef42223          	sw	a5,-28(s0)
#endif
	ptimeval->tv_sec = tv / CLOCK_PERIOD;
80002324:	fe042703          	lw	a4,-32(s0)
80002328:	fe442783          	lw	a5,-28(s0)
8000232c:	05f5e637          	lui	a2,0x5f5e
80002330:	10060613          	addi	a2,a2,256 # 5f5e100 <_reset-0x7a0a1f00>
80002334:	00000693          	li	a3,0
80002338:	00070513          	mv	a0,a4
8000233c:	00078593          	mv	a1,a5
80002340:	025000ef          	jal	ra,80002b64 <__divdi3>
80002344:	00050713          	mv	a4,a0
80002348:	00058793          	mv	a5,a1
8000234c:	fdc42683          	lw	a3,-36(s0)
80002350:	00e6a023          	sw	a4,0(a3)
80002354:	00f6a223          	sw	a5,4(a3)
	ptimeval->tv_usec = tv % CLOCK_PERIOD / (CLOCK_PERIOD / 1000000);
80002358:	fe042703          	lw	a4,-32(s0)
8000235c:	fe442783          	lw	a5,-28(s0)
80002360:	05f5e637          	lui	a2,0x5f5e
80002364:	10060613          	addi	a2,a2,256 # 5f5e100 <_reset-0x7a0a1f00>
80002368:	00000693          	li	a3,0
8000236c:	00070513          	mv	a0,a4
80002370:	00078593          	mv	a1,a5
80002374:	469000ef          	jal	ra,80002fdc <__moddi3>
80002378:	00050713          	mv	a4,a0
8000237c:	00058793          	mv	a5,a1
80002380:	06400613          	li	a2,100
80002384:	00000693          	li	a3,0
80002388:	00070513          	mv	a0,a4
8000238c:	00078593          	mv	a1,a5
80002390:	7d4000ef          	jal	ra,80002b64 <__divdi3>
80002394:	00050713          	mv	a4,a0
80002398:	00058793          	mv	a5,a1
8000239c:	fdc42783          	lw	a5,-36(s0)
800023a0:	00e7a423          	sw	a4,8(a5)
    }

    return 0;
800023a4:	00000793          	li	a5,0
}
800023a8:	00078513          	mv	a0,a5
800023ac:	02c12083          	lw	ra,44(sp)
800023b0:	02812403          	lw	s0,40(sp)
800023b4:	03010113          	addi	sp,sp,48
800023b8:	00008067          	ret

800023bc <sleep>:

unsigned int sleep(unsigned int seconds)
{
800023bc:	fd010113          	addi	sp,sp,-48
800023c0:	02112623          	sw	ra,44(sp)
800023c4:	02812423          	sw	s0,40(sp)
800023c8:	03212223          	sw	s2,36(sp)
800023cc:	03312023          	sw	s3,32(sp)
800023d0:	03010413          	addi	s0,sp,48
800023d4:	fca42e23          	sw	a0,-36(s0)
    struct timeval tv;
    gettimeofday(&tv, NULL);
800023d8:	fe040793          	addi	a5,s0,-32
800023dc:	00000593          	li	a1,0
800023e0:	00078513          	mv	a0,a5
800023e4:	ee1ff0ef          	jal	ra,800022c4 <gettimeofday>
    seconds += tv.tv_sec;
800023e8:	fe042703          	lw	a4,-32(s0)
800023ec:	fe442783          	lw	a5,-28(s0)
800023f0:	fdc42783          	lw	a5,-36(s0)
800023f4:	00e787b3          	add	a5,a5,a4
800023f8:	fcf42e23          	sw	a5,-36(s0)

    while (tv.tv_sec < seconds)
800023fc:	0140006f          	j	80002410 <sleep+0x54>
	gettimeofday(&tv, NULL);
80002400:	fe040793          	addi	a5,s0,-32
80002404:	00000593          	li	a1,0
80002408:	00078513          	mv	a0,a5
8000240c:	eb9ff0ef          	jal	ra,800022c4 <gettimeofday>
    while (tv.tv_sec < seconds)
80002410:	fe042703          	lw	a4,-32(s0)
80002414:	fe442783          	lw	a5,-28(s0)
80002418:	fdc42683          	lw	a3,-36(s0)
8000241c:	00068913          	mv	s2,a3
80002420:	00000993          	li	s3,0
80002424:	00098613          	mv	a2,s3
80002428:	00078693          	mv	a3,a5
8000242c:	fcc6cae3          	blt	a3,a2,80002400 <sleep+0x44>
80002430:	00098613          	mv	a2,s3
80002434:	00078693          	mv	a3,a5
80002438:	00d61863          	bne	a2,a3,80002448 <sleep+0x8c>
8000243c:	00090693          	mv	a3,s2
80002440:	00070793          	mv	a5,a4
80002444:	fad7eee3          	bltu	a5,a3,80002400 <sleep+0x44>

    return 0;
80002448:	00000793          	li	a5,0
}
8000244c:	00078513          	mv	a0,a5
80002450:	02c12083          	lw	ra,44(sp)
80002454:	02812403          	lw	s0,40(sp)
80002458:	02412903          	lw	s2,36(sp)
8000245c:	02012983          	lw	s3,32(sp)
80002460:	03010113          	addi	sp,sp,48
80002464:	00008067          	ret

80002468 <_sbrk>:

// JES drafts:

void *
_sbrk (int nbytes)
{
80002468:	fe010113          	addi	sp,sp,-32
8000246c:	00112e23          	sw	ra,28(sp)
80002470:	00812c23          	sw	s0,24(sp)
80002474:	02010413          	addi	s0,sp,32
80002478:	fea42623          	sw	a0,-20(s0)
  errno = ENOMEM;
8000247c:	7b1000ef          	jal	ra,8000342c <__errno>
80002480:	00050713          	mv	a4,a0
80002484:	00c00793          	li	a5,12
80002488:	00f72023          	sw	a5,0(a4)
  return  (void *) -1;
8000248c:	fff00793          	li	a5,-1
}
80002490:	00078513          	mv	a0,a5
80002494:	01c12083          	lw	ra,28(sp)
80002498:	01812403          	lw	s0,24(sp)
8000249c:	02010113          	addi	sp,sp,32
800024a0:	00008067          	ret

800024a4 <_write>:
  errno = ENOSPC;
  return -1;
}
*/

int _write(int file, char *ptr, int len) {
800024a4:	fd010113          	addi	sp,sp,-48
800024a8:	02112623          	sw	ra,44(sp)
800024ac:	02812423          	sw	s0,40(sp)
800024b0:	03010413          	addi	s0,sp,48
800024b4:	fca42e23          	sw	a0,-36(s0)
800024b8:	fcb42c23          	sw	a1,-40(s0)
800024bc:	fcc42a23          	sw	a2,-44(s0)
  int todo;

#ifdef CONSOLE_UART
  for (todo = 0; todo < len; todo++) {
800024c0:	fe042623          	sw	zero,-20(s0)
800024c4:	0280006f          	j	800024ec <_write+0x48>
    ns16550_txchar (*ptr++);
800024c8:	fd842783          	lw	a5,-40(s0)
800024cc:	00178713          	addi	a4,a5,1
800024d0:	fce42c23          	sw	a4,-40(s0)
800024d4:	0007c783          	lbu	a5,0(a5)
800024d8:	00078513          	mv	a0,a5
800024dc:	330000ef          	jal	ra,8000280c <ns16550_txchar>
  for (todo = 0; todo < len; todo++) {
800024e0:	fec42783          	lw	a5,-20(s0)
800024e4:	00178793          	addi	a5,a5,1
800024e8:	fef42623          	sw	a5,-20(s0)
800024ec:	fec42703          	lw	a4,-20(s0)
800024f0:	fd442783          	lw	a5,-44(s0)
800024f4:	fcf74ae3          	blt	a4,a5,800024c8 <_write+0x24>
  }
#endif
  return len;
800024f8:	fd442783          	lw	a5,-44(s0)
}
800024fc:	00078513          	mv	a0,a5
80002500:	02c12083          	lw	ra,44(sp)
80002504:	02812403          	lw	s0,40(sp)
80002508:	03010113          	addi	sp,sp,48
8000250c:	00008067          	ret

80002510 <_close>:

int _close(
   int fd
	   )
{
80002510:	fe010113          	addi	sp,sp,-32
80002514:	00112e23          	sw	ra,28(sp)
80002518:	00812c23          	sw	s0,24(sp)
8000251c:	02010413          	addi	s0,sp,32
80002520:	fea42623          	sw	a0,-20(s0)
  errno = EBADF;
80002524:	709000ef          	jal	ra,8000342c <__errno>
80002528:	00050713          	mv	a4,a0
8000252c:	00900793          	li	a5,9
80002530:	00f72023          	sw	a5,0(a4)
  return -1;
80002534:	fff00793          	li	a5,-1
}
80002538:	00078513          	mv	a0,a5
8000253c:	01c12083          	lw	ra,28(sp)
80002540:	01812403          	lw	s0,24(sp)
80002544:	02010113          	addi	sp,sp,32
80002548:	00008067          	ret

8000254c <_lseek>:
long _lseek(
    int fd,
    long offset,
    int origin
)
{
8000254c:	fe010113          	addi	sp,sp,-32
80002550:	00112e23          	sw	ra,28(sp)
80002554:	00812c23          	sw	s0,24(sp)
80002558:	02010413          	addi	s0,sp,32
8000255c:	fea42623          	sw	a0,-20(s0)
80002560:	feb42423          	sw	a1,-24(s0)
80002564:	fec42223          	sw	a2,-28(s0)
  errno = EBADF;
80002568:	6c5000ef          	jal	ra,8000342c <__errno>
8000256c:	00050713          	mv	a4,a0
80002570:	00900793          	li	a5,9
80002574:	00f72023          	sw	a5,0(a4)
  return -1;
80002578:	fff00793          	li	a5,-1
}
8000257c:	00078513          	mv	a0,a5
80002580:	01c12083          	lw	ra,28(sp)
80002584:	01812403          	lw	s0,24(sp)
80002588:	02010113          	addi	sp,sp,32
8000258c:	00008067          	ret

80002590 <_read>:
int _read(
   int fd,
   void *buffer,
   unsigned int count
)
{
80002590:	fe010113          	addi	sp,sp,-32
80002594:	00112e23          	sw	ra,28(sp)
80002598:	00812c23          	sw	s0,24(sp)
8000259c:	02010413          	addi	s0,sp,32
800025a0:	fea42623          	sw	a0,-20(s0)
800025a4:	feb42423          	sw	a1,-24(s0)
800025a8:	fec42223          	sw	a2,-28(s0)
  errno = EBADF;
800025ac:	681000ef          	jal	ra,8000342c <__errno>
800025b0:	00050713          	mv	a4,a0
800025b4:	00900793          	li	a5,9
800025b8:	00f72023          	sw	a5,0(a4)
  return -1;
800025bc:	fff00793          	li	a5,-1
}
800025c0:	00078513          	mv	a0,a5
800025c4:	01c12083          	lw	ra,28(sp)
800025c8:	01812403          	lw	s0,24(sp)
800025cc:	02010113          	addi	sp,sp,32
800025d0:	00008067          	ret

800025d4 <_fstat>:

int _fstat(
   int fd,
   struct stat *buffer
)
{
800025d4:	fe010113          	addi	sp,sp,-32
800025d8:	00112e23          	sw	ra,28(sp)
800025dc:	00812c23          	sw	s0,24(sp)
800025e0:	02010413          	addi	s0,sp,32
800025e4:	fea42623          	sw	a0,-20(s0)
800025e8:	feb42423          	sw	a1,-24(s0)
  errno = EBADF;
800025ec:	641000ef          	jal	ra,8000342c <__errno>
800025f0:	00050713          	mv	a4,a0
800025f4:	00900793          	li	a5,9
800025f8:	00f72023          	sw	a5,0(a4)
  return -1;
800025fc:	fff00793          	li	a5,-1
}
80002600:	00078513          	mv	a0,a5
80002604:	01c12083          	lw	ra,28(sp)
80002608:	01812403          	lw	s0,24(sp)
8000260c:	02010113          	addi	sp,sp,32
80002610:	00008067          	ret

80002614 <_isatty>:

int _isatty(
  int fd
)
{
80002614:	fe010113          	addi	sp,sp,-32
80002618:	00112e23          	sw	ra,28(sp)
8000261c:	00812c23          	sw	s0,24(sp)
80002620:	02010413          	addi	s0,sp,32
80002624:	fea42623          	sw	a0,-20(s0)
  errno = EBADF;
80002628:	605000ef          	jal	ra,8000342c <__errno>
8000262c:	00050713          	mv	a4,a0
80002630:	00900793          	li	a5,9
80002634:	00f72023          	sw	a5,0(a4)
  return 0;
80002638:	00000793          	li	a5,0
}
8000263c:	00078513          	mv	a0,a5
80002640:	01c12083          	lw	ra,28(sp)
80002644:	01812403          	lw	s0,24(sp)
80002648:	02010113          	addi	sp,sp,32
8000264c:	00008067          	ret

80002650 <_kill>:

int _kill(
  int pid,
  int sig
)
{
80002650:	fe010113          	addi	sp,sp,-32
80002654:	00112e23          	sw	ra,28(sp)
80002658:	00812c23          	sw	s0,24(sp)
8000265c:	02010413          	addi	s0,sp,32
80002660:	fea42623          	sw	a0,-20(s0)
80002664:	feb42423          	sw	a1,-24(s0)
  errno = EBADF;
80002668:	5c5000ef          	jal	ra,8000342c <__errno>
8000266c:	00050713          	mv	a4,a0
80002670:	00900793          	li	a5,9
80002674:	00f72023          	sw	a5,0(a4)
  return -1;
80002678:	fff00793          	li	a5,-1
}
8000267c:	00078513          	mv	a0,a5
80002680:	01c12083          	lw	ra,28(sp)
80002684:	01812403          	lw	s0,24(sp)
80002688:	02010113          	addi	sp,sp,32
8000268c:	00008067          	ret

80002690 <_getpid>:

int _getpid(
  int n
)
{
80002690:	fe010113          	addi	sp,sp,-32
80002694:	00812e23          	sw	s0,28(sp)
80002698:	02010413          	addi	s0,sp,32
8000269c:	fea42623          	sw	a0,-20(s0)
  return 1;
800026a0:	00100793          	li	a5,1
}
800026a4:	00078513          	mv	a0,a5
800026a8:	01c12403          	lw	s0,28(sp)
800026ac:	02010113          	addi	sp,sp,32
800026b0:	00008067          	ret

800026b4 <ns16550_init>:
static struct ns16550_pio * pio = (void*)NS16550_BASE;

#ifdef CONSOLE_UART
__attribute__ ((constructor))
static int ns16550_init(void)
{
800026b4:	fe010113          	addi	sp,sp,-32
800026b8:	00812e23          	sw	s0,28(sp)
800026bc:	02010413          	addi	s0,sp,32
  uint32_t divisor;

  pio->ier = 0;
800026c0:	03818793          	addi	a5,gp,56 # 80007e60 <pio>
800026c4:	0007a783          	lw	a5,0(a5)
800026c8:	00078223          	sb	zero,4(a5)

  divisor = NS16550_CLOCK_RATE / (16 * DEFAULT_BAUDRATE);
800026cc:	00d00793          	li	a5,13
800026d0:	fef42623          	sw	a5,-20(s0)
  pio->lcr |= LCR_DLAB;
800026d4:	03818793          	addi	a5,gp,56 # 80007e60 <pio>
800026d8:	0007a783          	lw	a5,0(a5)
800026dc:	00c7c783          	lbu	a5,12(a5)
800026e0:	0ff7f713          	zext.b	a4,a5
800026e4:	03818793          	addi	a5,gp,56 # 80007e60 <pio>
800026e8:	0007a783          	lw	a5,0(a5)
800026ec:	f8076713          	ori	a4,a4,-128
800026f0:	0ff77713          	zext.b	a4,a4
800026f4:	00e78623          	sb	a4,12(a5)
  pio->dll = divisor & 0xff;
800026f8:	03818793          	addi	a5,gp,56 # 80007e60 <pio>
800026fc:	0007a783          	lw	a5,0(a5)
80002700:	fec42703          	lw	a4,-20(s0)
80002704:	0ff77713          	zext.b	a4,a4
80002708:	00e78023          	sb	a4,0(a5)
  pio->dlm = (divisor >> 8) & 0xff;
8000270c:	fec42783          	lw	a5,-20(s0)
80002710:	0087d713          	srli	a4,a5,0x8
80002714:	03818793          	addi	a5,gp,56 # 80007e60 <pio>
80002718:	0007a783          	lw	a5,0(a5)
8000271c:	0ff77713          	zext.b	a4,a4
80002720:	00e78223          	sb	a4,4(a5)
  pio->lcr &= ~LCR_DLAB;
80002724:	03818793          	addi	a5,gp,56 # 80007e60 <pio>
80002728:	0007a783          	lw	a5,0(a5)
8000272c:	00c7c783          	lbu	a5,12(a5)
80002730:	0ff7f713          	zext.b	a4,a5
80002734:	03818793          	addi	a5,gp,56 # 80007e60 <pio>
80002738:	0007a783          	lw	a5,0(a5)
8000273c:	07f77713          	andi	a4,a4,127
80002740:	0ff77713          	zext.b	a4,a4
80002744:	00e78623          	sb	a4,12(a5)

  pio->lcr = LCR_WLS8;
80002748:	03818793          	addi	a5,gp,56 # 80007e60 <pio>
8000274c:	0007a783          	lw	a5,0(a5)
80002750:	00300713          	li	a4,3
80002754:	00e78623          	sb	a4,12(a5)
  pio->fcr = FCR_FE;
80002758:	03818793          	addi	a5,gp,56 # 80007e60 <pio>
8000275c:	0007a783          	lw	a5,0(a5)
80002760:	00100713          	li	a4,1
80002764:	00e78423          	sb	a4,8(a5)
  pio->mcr = MCR_RTS;
80002768:	03818793          	addi	a5,gp,56 # 80007e60 <pio>
8000276c:	0007a783          	lw	a5,0(a5)
80002770:	00200713          	li	a4,2
80002774:	00e78823          	sb	a4,16(a5)

  return 0;
80002778:	00000793          	li	a5,0
}
8000277c:	00078513          	mv	a0,a5
80002780:	01c12403          	lw	s0,28(sp)
80002784:	02010113          	addi	sp,sp,32
80002788:	00008067          	ret

8000278c <ns16550_rxready>:
#endif


int ns16550_rxready(void)
{
8000278c:	ff010113          	addi	sp,sp,-16
80002790:	00812623          	sw	s0,12(sp)
80002794:	01010413          	addi	s0,sp,16
  return ((pio->lsr & LSR_DR) != 0);
80002798:	03818793          	addi	a5,gp,56 # 80007e60 <pio>
8000279c:	0007a783          	lw	a5,0(a5)
800027a0:	0147c783          	lbu	a5,20(a5)
800027a4:	0ff7f793          	zext.b	a5,a5
800027a8:	0017f793          	andi	a5,a5,1
800027ac:	00f037b3          	snez	a5,a5
800027b0:	0ff7f793          	zext.b	a5,a5
}
800027b4:	00078513          	mv	a0,a5
800027b8:	00c12403          	lw	s0,12(sp)
800027bc:	01010113          	addi	sp,sp,16
800027c0:	00008067          	ret

800027c4 <ns16550_rxchar>:


int ns16550_rxchar(void)
{
800027c4:	ff010113          	addi	sp,sp,-16
800027c8:	00812623          	sw	s0,12(sp)
800027cc:	01010413          	addi	s0,sp,16
  while ((pio->lsr & LSR_DR) == 0)
800027d0:	00000013          	nop
800027d4:	03818793          	addi	a5,gp,56 # 80007e60 <pio>
800027d8:	0007a783          	lw	a5,0(a5)
800027dc:	0147c783          	lbu	a5,20(a5)
800027e0:	0ff7f793          	zext.b	a5,a5
800027e4:	0017f793          	andi	a5,a5,1
800027e8:	fe0786e3          	beqz	a5,800027d4 <ns16550_rxchar+0x10>
    ;  // nothing

  return pio->rbr;
800027ec:	03818793          	addi	a5,gp,56 # 80007e60 <pio>
800027f0:	0007a783          	lw	a5,0(a5)
800027f4:	0007c783          	lbu	a5,0(a5)
800027f8:	0ff7f793          	zext.b	a5,a5
}
800027fc:	00078513          	mv	a0,a5
80002800:	00c12403          	lw	s0,12(sp)
80002804:	01010113          	addi	sp,sp,16
80002808:	00008067          	ret

8000280c <ns16550_txchar>:


int ns16550_txchar(int c)
{
8000280c:	fe010113          	addi	sp,sp,-32
80002810:	00812e23          	sw	s0,28(sp)
80002814:	02010413          	addi	s0,sp,32
80002818:	fea42623          	sw	a0,-20(s0)
  while ((pio->lsr & LSR_THRE) == 0)
8000281c:	00000013          	nop
80002820:	03818793          	addi	a5,gp,56 # 80007e60 <pio>
80002824:	0007a783          	lw	a5,0(a5)
80002828:	0147c783          	lbu	a5,20(a5)
8000282c:	0ff7f793          	zext.b	a5,a5
80002830:	0207f793          	andi	a5,a5,32
80002834:	fe0786e3          	beqz	a5,80002820 <ns16550_txchar+0x14>
    ;  // nothing

  pio->thr = c;
80002838:	03818793          	addi	a5,gp,56 # 80007e60 <pio>
8000283c:	0007a783          	lw	a5,0(a5)
80002840:	fec42703          	lw	a4,-20(s0)
80002844:	0ff77713          	zext.b	a4,a4
80002848:	00e78023          	sb	a4,0(a5)

  return c;
8000284c:	fec42783          	lw	a5,-20(s0)
}
80002850:	00078513          	mv	a0,a5
80002854:	01c12403          	lw	s0,28(sp)
80002858:	02010113          	addi	sp,sp,32
8000285c:	00008067          	ret

80002860 <ns16550_flush>:


void ns16550_flush(void)
{
80002860:	ff010113          	addi	sp,sp,-16
80002864:	00812623          	sw	s0,12(sp)
80002868:	01010413          	addi	s0,sp,16
  while ((pio->lsr & LSR_TEMT) == 0)
8000286c:	00000013          	nop
80002870:	03818793          	addi	a5,gp,56 # 80007e60 <pio>
80002874:	0007a783          	lw	a5,0(a5)
80002878:	0147c783          	lbu	a5,20(a5)
8000287c:	0ff7f793          	zext.b	a5,a5
80002880:	0407f793          	andi	a5,a5,64
80002884:	fe0786e3          	beqz	a5,80002870 <ns16550_flush+0x10>
    ;  // nothing
}
80002888:	00000013          	nop
8000288c:	00000013          	nop
80002890:	00c12403          	lw	s0,12(sp)
80002894:	01010113          	addi	sp,sp,16
80002898:	00008067          	ret

8000289c <read_cycle>:
// RV32 versions

#ifdef RV32

uint64_t  read_cycle (void)
{
8000289c:	fe010113          	addi	sp,sp,-32
800028a0:	00812e23          	sw	s0,28(sp)
800028a4:	02010413          	addi	s0,sp,32
    uint64_t result;
    uint32_t resulth, resultl;

    asm volatile ("RDCYCLEH %0" : "=r" (resulth));
800028a8:	c80025f3          	rdcycleh	a1
800028ac:	feb42623          	sw	a1,-20(s0)
    asm volatile ("RDCYCLE  %0" : "=r" (resultl));
800028b0:	c00025f3          	rdcycle	a1
800028b4:	feb42423          	sw	a1,-24(s0)

    result = resulth;
800028b8:	fec42583          	lw	a1,-20(s0)
800028bc:	feb42023          	sw	a1,-32(s0)
800028c0:	fe042223          	sw	zero,-28(s0)
    result = ((result << 32) | resultl);
800028c4:	fe042583          	lw	a1,-32(s0)
800028c8:	00059793          	slli	a5,a1,0x0
800028cc:	00000713          	li	a4,0
800028d0:	fe842583          	lw	a1,-24(s0)
800028d4:	00058613          	mv	a2,a1
800028d8:	00000693          	li	a3,0
800028dc:	00c765b3          	or	a1,a4,a2
800028e0:	feb42023          	sw	a1,-32(s0)
800028e4:	00d7e7b3          	or	a5,a5,a3
800028e8:	fef42223          	sw	a5,-28(s0)
    return result;
800028ec:	fe042703          	lw	a4,-32(s0)
800028f0:	fe442783          	lw	a5,-28(s0)
}
800028f4:	00070513          	mv	a0,a4
800028f8:	00078593          	mv	a1,a5
800028fc:	01c12403          	lw	s0,28(sp)
80002900:	02010113          	addi	sp,sp,32
80002904:	00008067          	ret

80002908 <read_time>:

uint64_t  read_time (void)
{
80002908:	fe010113          	addi	sp,sp,-32
8000290c:	00812e23          	sw	s0,28(sp)
80002910:	02010413          	addi	s0,sp,32
    uint64_t result;
    uint32_t resulth, resultl;

    asm volatile ("RDTIMEH %0" : "=r" (resulth));
80002914:	c81025f3          	rdtimeh	a1
80002918:	feb42623          	sw	a1,-20(s0)
    asm volatile ("RDTIME  %0" : "=r" (resultl));
8000291c:	c01025f3          	rdtime	a1
80002920:	feb42423          	sw	a1,-24(s0)

    result = resulth;
80002924:	fec42583          	lw	a1,-20(s0)
80002928:	feb42023          	sw	a1,-32(s0)
8000292c:	fe042223          	sw	zero,-28(s0)
    result = ((result << 32) | resultl);
80002930:	fe042583          	lw	a1,-32(s0)
80002934:	00059793          	slli	a5,a1,0x0
80002938:	00000713          	li	a4,0
8000293c:	fe842583          	lw	a1,-24(s0)
80002940:	00058613          	mv	a2,a1
80002944:	00000693          	li	a3,0
80002948:	00c765b3          	or	a1,a4,a2
8000294c:	feb42023          	sw	a1,-32(s0)
80002950:	00d7e7b3          	or	a5,a5,a3
80002954:	fef42223          	sw	a5,-28(s0)
    return result;
80002958:	fe042703          	lw	a4,-32(s0)
8000295c:	fe442783          	lw	a5,-28(s0)
}
80002960:	00070513          	mv	a0,a4
80002964:	00078593          	mv	a1,a5
80002968:	01c12403          	lw	s0,28(sp)
8000296c:	02010113          	addi	sp,sp,32
80002970:	00008067          	ret

80002974 <read_instret>:

uint64_t  read_instret (void)
{
80002974:	fe010113          	addi	sp,sp,-32
80002978:	00812e23          	sw	s0,28(sp)
8000297c:	02010413          	addi	s0,sp,32
    uint64_t result;
    uint32_t resulth, resultl;

    asm volatile ("RDINSTRETH %0" : "=r" (resulth));
80002980:	c82025f3          	rdinstreth	a1
80002984:	feb42623          	sw	a1,-20(s0)
    asm volatile ("RDINSTRET  %0" : "=r" (resultl));
80002988:	c02025f3          	rdinstret	a1
8000298c:	feb42423          	sw	a1,-24(s0)

    result = resulth;
80002990:	fec42583          	lw	a1,-20(s0)
80002994:	feb42023          	sw	a1,-32(s0)
80002998:	fe042223          	sw	zero,-28(s0)
    result = ((result << 32) | resultl);
8000299c:	fe042583          	lw	a1,-32(s0)
800029a0:	00059793          	slli	a5,a1,0x0
800029a4:	00000713          	li	a4,0
800029a8:	fe842583          	lw	a1,-24(s0)
800029ac:	00058613          	mv	a2,a1
800029b0:	00000693          	li	a3,0
800029b4:	00c765b3          	or	a1,a4,a2
800029b8:	feb42023          	sw	a1,-32(s0)
800029bc:	00d7e7b3          	or	a5,a5,a3
800029c0:	fef42223          	sw	a5,-28(s0)
    return result;
800029c4:	fe042703          	lw	a4,-32(s0)
800029c8:	fe442783          	lw	a5,-28(s0)
}
800029cc:	00070513          	mv	a0,a4
800029d0:	00078593          	mv	a1,a5
800029d4:	01c12403          	lw	s0,28(sp)
800029d8:	02010113          	addi	sp,sp,32
800029dc:	00008067          	ret

800029e0 <fence>:
// When reading/writing data needed by accelerators, we use 'fence' to
// ensure that caches are empty, i.e., memory contains definitive data
// and caches will be reloaded.

void fence (void)
{
800029e0:	ff010113          	addi	sp,sp,-16
800029e4:	00812623          	sw	s0,12(sp)
800029e8:	01010413          	addi	s0,sp,16
    asm volatile ("fence");
800029ec:	0ff0000f          	fence
}
800029f0:	00000013          	nop
800029f4:	00c12403          	lw	s0,12(sp)
800029f8:	01010113          	addi	sp,sp,16
800029fc:	00008067          	ret

80002a00 <addr_to_pointer>:

// ================================================================
// Read/Write to IO addresses

void *addr_to_pointer (uint64_t addr)
{
80002a00:	fd010113          	addi	sp,sp,-48
80002a04:	02812623          	sw	s0,44(sp)
80002a08:	03010413          	addi	s0,sp,48
80002a0c:	fca42c23          	sw	a0,-40(s0)
80002a10:	fcb42e23          	sw	a1,-36(s0)
#ifdef RV32
    uint32_t addr1 = addr;    // Discards addr [63:32]
80002a14:	fd842783          	lw	a5,-40(s0)
80002a18:	fef42623          	sw	a5,-20(s0)
#endif
#ifdef RV64
    uint64_t addr1 = addr;
#endif
    return (void *) addr1;
80002a1c:	fec42783          	lw	a5,-20(s0)
}
80002a20:	00078513          	mv	a0,a5
80002a24:	02c12403          	lw	s0,44(sp)
80002a28:	03010113          	addi	sp,sp,48
80002a2c:	00008067          	ret

80002a30 <io_read32>:


uint32_t  io_read32 (uint64_t addr)
{
80002a30:	fd010113          	addi	sp,sp,-48
80002a34:	02112623          	sw	ra,44(sp)
80002a38:	02812423          	sw	s0,40(sp)
80002a3c:	03010413          	addi	s0,sp,48
80002a40:	fca42c23          	sw	a0,-40(s0)
80002a44:	fcb42e23          	sw	a1,-36(s0)
    uint32_t *p = (uint32_t *) addr_to_pointer (addr);
80002a48:	fd842503          	lw	a0,-40(s0)
80002a4c:	fdc42583          	lw	a1,-36(s0)
80002a50:	fb1ff0ef          	jal	ra,80002a00 <addr_to_pointer>
80002a54:	fea42623          	sw	a0,-20(s0)
    return *p;
80002a58:	fec42783          	lw	a5,-20(s0)
80002a5c:	0007a783          	lw	a5,0(a5)
}
80002a60:	00078513          	mv	a0,a5
80002a64:	02c12083          	lw	ra,44(sp)
80002a68:	02812403          	lw	s0,40(sp)
80002a6c:	03010113          	addi	sp,sp,48
80002a70:	00008067          	ret

80002a74 <io_write32>:

void  io_write32 (uint64_t addr, uint32_t x)
{
80002a74:	fd010113          	addi	sp,sp,-48
80002a78:	02112623          	sw	ra,44(sp)
80002a7c:	02812423          	sw	s0,40(sp)
80002a80:	03010413          	addi	s0,sp,48
80002a84:	fca42c23          	sw	a0,-40(s0)
80002a88:	fcb42e23          	sw	a1,-36(s0)
80002a8c:	fcc42a23          	sw	a2,-44(s0)
    uint32_t *p = (uint32_t *) addr_to_pointer (addr);
80002a90:	fd842503          	lw	a0,-40(s0)
80002a94:	fdc42583          	lw	a1,-36(s0)
80002a98:	f69ff0ef          	jal	ra,80002a00 <addr_to_pointer>
80002a9c:	fea42623          	sw	a0,-20(s0)
    *p = x;
80002aa0:	fec42783          	lw	a5,-20(s0)
80002aa4:	fd442703          	lw	a4,-44(s0)
80002aa8:	00e7a023          	sw	a4,0(a5)
}
80002aac:	00000013          	nop
80002ab0:	02c12083          	lw	ra,44(sp)
80002ab4:	02812403          	lw	s0,40(sp)
80002ab8:	03010113          	addi	sp,sp,48
80002abc:	00008067          	ret

80002ac0 <io_read64>:

uint64_t  io_read64 (uint64_t addr)
{
80002ac0:	fd010113          	addi	sp,sp,-48
80002ac4:	02112623          	sw	ra,44(sp)
80002ac8:	02812423          	sw	s0,40(sp)
80002acc:	03010413          	addi	s0,sp,48
80002ad0:	fca42c23          	sw	a0,-40(s0)
80002ad4:	fcb42e23          	sw	a1,-36(s0)
    uint64_t *p = (uint64_t *) addr_to_pointer (addr);
80002ad8:	fd842503          	lw	a0,-40(s0)
80002adc:	fdc42583          	lw	a1,-36(s0)
80002ae0:	f21ff0ef          	jal	ra,80002a00 <addr_to_pointer>
80002ae4:	fea42623          	sw	a0,-20(s0)
    return *p;
80002ae8:	fec42783          	lw	a5,-20(s0)
80002aec:	0007a703          	lw	a4,0(a5)
80002af0:	0047a783          	lw	a5,4(a5)
}
80002af4:	00070513          	mv	a0,a4
80002af8:	00078593          	mv	a1,a5
80002afc:	02c12083          	lw	ra,44(sp)
80002b00:	02812403          	lw	s0,40(sp)
80002b04:	03010113          	addi	sp,sp,48
80002b08:	00008067          	ret

80002b0c <io_write64>:

void  io_write64 (uint64_t addr, uint64_t x)
{
80002b0c:	fd010113          	addi	sp,sp,-48
80002b10:	02112623          	sw	ra,44(sp)
80002b14:	02812423          	sw	s0,40(sp)
80002b18:	03010413          	addi	s0,sp,48
80002b1c:	fca42c23          	sw	a0,-40(s0)
80002b20:	fcb42e23          	sw	a1,-36(s0)
80002b24:	fcc42823          	sw	a2,-48(s0)
80002b28:	fcd42a23          	sw	a3,-44(s0)
    uint64_t *p = (uint64_t *) addr_to_pointer (addr);
80002b2c:	fd842503          	lw	a0,-40(s0)
80002b30:	fdc42583          	lw	a1,-36(s0)
80002b34:	ecdff0ef          	jal	ra,80002a00 <addr_to_pointer>
80002b38:	fea42623          	sw	a0,-20(s0)
    *p = x;
80002b3c:	fec42683          	lw	a3,-20(s0)
80002b40:	fd042703          	lw	a4,-48(s0)
80002b44:	fd442783          	lw	a5,-44(s0)
80002b48:	00e6a023          	sw	a4,0(a3)
80002b4c:	00f6a223          	sw	a5,4(a3)
}
80002b50:	00000013          	nop
80002b54:	02c12083          	lw	ra,44(sp)
80002b58:	02812403          	lw	s0,40(sp)
80002b5c:	03010113          	addi	sp,sp,48
80002b60:	00008067          	ret

80002b64 <__divdi3>:
80002b64:	00050313          	mv	t1,a0
80002b68:	00058e13          	mv	t3,a1
80002b6c:	00000893          	li	a7,0
80002b70:	0005dc63          	bgez	a1,80002b88 <__divdi3+0x24>
80002b74:	00a037b3          	snez	a5,a0
80002b78:	40b00e33          	neg	t3,a1
80002b7c:	40fe0e33          	sub	t3,t3,a5
80002b80:	40a00333          	neg	t1,a0
80002b84:	fff00893          	li	a7,-1
80002b88:	0006dc63          	bgez	a3,80002ba0 <__divdi3+0x3c>
80002b8c:	00c037b3          	snez	a5,a2
80002b90:	40d006b3          	neg	a3,a3
80002b94:	fff8c893          	not	a7,a7
80002b98:	40f686b3          	sub	a3,a3,a5
80002b9c:	40c00633          	neg	a2,a2
80002ba0:	00060713          	mv	a4,a2
80002ba4:	00030813          	mv	a6,t1
80002ba8:	000e0793          	mv	a5,t3
80002bac:	28069c63          	bnez	a3,80002e44 <__divdi3+0x2e0>
80002bb0:	00004597          	auipc	a1,0x4
80002bb4:	92058593          	addi	a1,a1,-1760 # 800064d0 <__clz_tab>
80002bb8:	0ece7663          	bgeu	t3,a2,80002ca4 <__divdi3+0x140>
80002bbc:	000106b7          	lui	a3,0x10
80002bc0:	0cd67863          	bgeu	a2,a3,80002c90 <__divdi3+0x12c>
80002bc4:	10063693          	sltiu	a3,a2,256
80002bc8:	0016c693          	xori	a3,a3,1
80002bcc:	00369693          	slli	a3,a3,0x3
80002bd0:	00d65533          	srl	a0,a2,a3
80002bd4:	00a585b3          	add	a1,a1,a0
80002bd8:	0005c583          	lbu	a1,0(a1)
80002bdc:	02000513          	li	a0,32
80002be0:	00d586b3          	add	a3,a1,a3
80002be4:	40d505b3          	sub	a1,a0,a3
80002be8:	00d50c63          	beq	a0,a3,80002c00 <__divdi3+0x9c>
80002bec:	00be17b3          	sll	a5,t3,a1
80002bf0:	00d356b3          	srl	a3,t1,a3
80002bf4:	00b61733          	sll	a4,a2,a1
80002bf8:	00f6e7b3          	or	a5,a3,a5
80002bfc:	00b31833          	sll	a6,t1,a1
80002c00:	01075593          	srli	a1,a4,0x10
80002c04:	02b7de33          	divu	t3,a5,a1
80002c08:	01071613          	slli	a2,a4,0x10
80002c0c:	01065613          	srli	a2,a2,0x10
80002c10:	02b7f7b3          	remu	a5,a5,a1
80002c14:	000e0513          	mv	a0,t3
80002c18:	03c60333          	mul	t1,a2,t3
80002c1c:	01079693          	slli	a3,a5,0x10
80002c20:	01085793          	srli	a5,a6,0x10
80002c24:	00d7e7b3          	or	a5,a5,a3
80002c28:	0067fe63          	bgeu	a5,t1,80002c44 <__divdi3+0xe0>
80002c2c:	00f707b3          	add	a5,a4,a5
80002c30:	fffe0513          	addi	a0,t3,-1
80002c34:	00e7e863          	bltu	a5,a4,80002c44 <__divdi3+0xe0>
80002c38:	0067f663          	bgeu	a5,t1,80002c44 <__divdi3+0xe0>
80002c3c:	ffee0513          	addi	a0,t3,-2
80002c40:	00e787b3          	add	a5,a5,a4
80002c44:	406787b3          	sub	a5,a5,t1
80002c48:	02b7d333          	divu	t1,a5,a1
80002c4c:	01081813          	slli	a6,a6,0x10
80002c50:	01085813          	srli	a6,a6,0x10
80002c54:	02b7f7b3          	remu	a5,a5,a1
80002c58:	026606b3          	mul	a3,a2,t1
80002c5c:	01079793          	slli	a5,a5,0x10
80002c60:	00f86833          	or	a6,a6,a5
80002c64:	00030793          	mv	a5,t1
80002c68:	00d87c63          	bgeu	a6,a3,80002c80 <__divdi3+0x11c>
80002c6c:	01070833          	add	a6,a4,a6
80002c70:	fff30793          	addi	a5,t1,-1 # 80002183 <frame_dummy+0x13>
80002c74:	00e86663          	bltu	a6,a4,80002c80 <__divdi3+0x11c>
80002c78:	00d87463          	bgeu	a6,a3,80002c80 <__divdi3+0x11c>
80002c7c:	ffe30793          	addi	a5,t1,-2
80002c80:	01051513          	slli	a0,a0,0x10
80002c84:	00f56533          	or	a0,a0,a5
80002c88:	00000593          	li	a1,0
80002c8c:	0e00006f          	j	80002d6c <__divdi3+0x208>
80002c90:	01000537          	lui	a0,0x1000
80002c94:	01000693          	li	a3,16
80002c98:	f2a66ce3          	bltu	a2,a0,80002bd0 <__divdi3+0x6c>
80002c9c:	01800693          	li	a3,24
80002ca0:	f31ff06f          	j	80002bd0 <__divdi3+0x6c>
80002ca4:	00000693          	li	a3,0
80002ca8:	00060c63          	beqz	a2,80002cc0 <__divdi3+0x15c>
80002cac:	000107b7          	lui	a5,0x10
80002cb0:	0cf67a63          	bgeu	a2,a5,80002d84 <__divdi3+0x220>
80002cb4:	10063693          	sltiu	a3,a2,256
80002cb8:	0016c693          	xori	a3,a3,1
80002cbc:	00369693          	slli	a3,a3,0x3
80002cc0:	00d657b3          	srl	a5,a2,a3
80002cc4:	00f585b3          	add	a1,a1,a5
80002cc8:	0005c783          	lbu	a5,0(a1)
80002ccc:	00d787b3          	add	a5,a5,a3
80002cd0:	02000693          	li	a3,32
80002cd4:	40f685b3          	sub	a1,a3,a5
80002cd8:	0cf69063          	bne	a3,a5,80002d98 <__divdi3+0x234>
80002cdc:	40ce07b3          	sub	a5,t3,a2
80002ce0:	00100593          	li	a1,1
80002ce4:	01075313          	srli	t1,a4,0x10
80002ce8:	0267deb3          	divu	t4,a5,t1
80002cec:	01071613          	slli	a2,a4,0x10
80002cf0:	01065613          	srli	a2,a2,0x10
80002cf4:	01085693          	srli	a3,a6,0x10
80002cf8:	0267f7b3          	remu	a5,a5,t1
80002cfc:	000e8513          	mv	a0,t4
80002d00:	03d60e33          	mul	t3,a2,t4
80002d04:	01079793          	slli	a5,a5,0x10
80002d08:	00f6e7b3          	or	a5,a3,a5
80002d0c:	01c7fe63          	bgeu	a5,t3,80002d28 <__divdi3+0x1c4>
80002d10:	00f707b3          	add	a5,a4,a5
80002d14:	fffe8513          	addi	a0,t4,-1
80002d18:	00e7e863          	bltu	a5,a4,80002d28 <__divdi3+0x1c4>
80002d1c:	01c7f663          	bgeu	a5,t3,80002d28 <__divdi3+0x1c4>
80002d20:	ffee8513          	addi	a0,t4,-2
80002d24:	00e787b3          	add	a5,a5,a4
80002d28:	41c787b3          	sub	a5,a5,t3
80002d2c:	0267de33          	divu	t3,a5,t1
80002d30:	01081813          	slli	a6,a6,0x10
80002d34:	01085813          	srli	a6,a6,0x10
80002d38:	0267f7b3          	remu	a5,a5,t1
80002d3c:	03c606b3          	mul	a3,a2,t3
80002d40:	01079793          	slli	a5,a5,0x10
80002d44:	00f86833          	or	a6,a6,a5
80002d48:	000e0793          	mv	a5,t3
80002d4c:	00d87c63          	bgeu	a6,a3,80002d64 <__divdi3+0x200>
80002d50:	01070833          	add	a6,a4,a6
80002d54:	fffe0793          	addi	a5,t3,-1
80002d58:	00e86663          	bltu	a6,a4,80002d64 <__divdi3+0x200>
80002d5c:	00d87463          	bgeu	a6,a3,80002d64 <__divdi3+0x200>
80002d60:	ffee0793          	addi	a5,t3,-2
80002d64:	01051513          	slli	a0,a0,0x10
80002d68:	00f56533          	or	a0,a0,a5
80002d6c:	00088a63          	beqz	a7,80002d80 <__divdi3+0x21c>
80002d70:	00a037b3          	snez	a5,a0
80002d74:	40b005b3          	neg	a1,a1
80002d78:	40f585b3          	sub	a1,a1,a5
80002d7c:	40a00533          	neg	a0,a0
80002d80:	00008067          	ret
80002d84:	010007b7          	lui	a5,0x1000
80002d88:	01000693          	li	a3,16
80002d8c:	f2f66ae3          	bltu	a2,a5,80002cc0 <__divdi3+0x15c>
80002d90:	01800693          	li	a3,24
80002d94:	f2dff06f          	j	80002cc0 <__divdi3+0x15c>
80002d98:	00b61733          	sll	a4,a2,a1
80002d9c:	00fe56b3          	srl	a3,t3,a5
80002da0:	01075513          	srli	a0,a4,0x10
80002da4:	00be1e33          	sll	t3,t3,a1
80002da8:	00f357b3          	srl	a5,t1,a5
80002dac:	01c7e7b3          	or	a5,a5,t3
80002db0:	02a6de33          	divu	t3,a3,a0
80002db4:	01071613          	slli	a2,a4,0x10
80002db8:	01065613          	srli	a2,a2,0x10
80002dbc:	00b31833          	sll	a6,t1,a1
80002dc0:	02a6f6b3          	remu	a3,a3,a0
80002dc4:	03c60333          	mul	t1,a2,t3
80002dc8:	01069593          	slli	a1,a3,0x10
80002dcc:	0107d693          	srli	a3,a5,0x10
80002dd0:	00b6e6b3          	or	a3,a3,a1
80002dd4:	000e0593          	mv	a1,t3
80002dd8:	0066fe63          	bgeu	a3,t1,80002df4 <__divdi3+0x290>
80002ddc:	00d706b3          	add	a3,a4,a3
80002de0:	fffe0593          	addi	a1,t3,-1
80002de4:	00e6e863          	bltu	a3,a4,80002df4 <__divdi3+0x290>
80002de8:	0066f663          	bgeu	a3,t1,80002df4 <__divdi3+0x290>
80002dec:	ffee0593          	addi	a1,t3,-2
80002df0:	00e686b3          	add	a3,a3,a4
80002df4:	406686b3          	sub	a3,a3,t1
80002df8:	02a6d333          	divu	t1,a3,a0
80002dfc:	01079793          	slli	a5,a5,0x10
80002e00:	0107d793          	srli	a5,a5,0x10
80002e04:	02a6f6b3          	remu	a3,a3,a0
80002e08:	02660633          	mul	a2,a2,t1
80002e0c:	01069693          	slli	a3,a3,0x10
80002e10:	00d7e7b3          	or	a5,a5,a3
80002e14:	00030693          	mv	a3,t1
80002e18:	00c7fe63          	bgeu	a5,a2,80002e34 <__divdi3+0x2d0>
80002e1c:	00f707b3          	add	a5,a4,a5
80002e20:	fff30693          	addi	a3,t1,-1
80002e24:	00e7e863          	bltu	a5,a4,80002e34 <__divdi3+0x2d0>
80002e28:	00c7f663          	bgeu	a5,a2,80002e34 <__divdi3+0x2d0>
80002e2c:	ffe30693          	addi	a3,t1,-2
80002e30:	00e787b3          	add	a5,a5,a4
80002e34:	01059593          	slli	a1,a1,0x10
80002e38:	40c787b3          	sub	a5,a5,a2
80002e3c:	00d5e5b3          	or	a1,a1,a3
80002e40:	ea5ff06f          	j	80002ce4 <__divdi3+0x180>
80002e44:	18de6663          	bltu	t3,a3,80002fd0 <__divdi3+0x46c>
80002e48:	000107b7          	lui	a5,0x10
80002e4c:	04f6f463          	bgeu	a3,a5,80002e94 <__divdi3+0x330>
80002e50:	1006b713          	sltiu	a4,a3,256
80002e54:	00174713          	xori	a4,a4,1
80002e58:	00371713          	slli	a4,a4,0x3
80002e5c:	00e6d5b3          	srl	a1,a3,a4
80002e60:	00003797          	auipc	a5,0x3
80002e64:	67078793          	addi	a5,a5,1648 # 800064d0 <__clz_tab>
80002e68:	00b787b3          	add	a5,a5,a1
80002e6c:	0007c783          	lbu	a5,0(a5)
80002e70:	00e787b3          	add	a5,a5,a4
80002e74:	02000713          	li	a4,32
80002e78:	40f705b3          	sub	a1,a4,a5
80002e7c:	02f71663          	bne	a4,a5,80002ea8 <__divdi3+0x344>
80002e80:	00100513          	li	a0,1
80002e84:	efc6e4e3          	bltu	a3,t3,80002d6c <__divdi3+0x208>
80002e88:	00c33533          	sltu	a0,t1,a2
80002e8c:	00154513          	xori	a0,a0,1
80002e90:	eddff06f          	j	80002d6c <__divdi3+0x208>
80002e94:	010007b7          	lui	a5,0x1000
80002e98:	01000713          	li	a4,16
80002e9c:	fcf6e0e3          	bltu	a3,a5,80002e5c <__divdi3+0x2f8>
80002ea0:	01800713          	li	a4,24
80002ea4:	fb9ff06f          	j	80002e5c <__divdi3+0x2f8>
80002ea8:	00f65733          	srl	a4,a2,a5
80002eac:	00b696b3          	sll	a3,a3,a1
80002eb0:	00d766b3          	or	a3,a4,a3
80002eb4:	00fe5733          	srl	a4,t3,a5
80002eb8:	00be1e33          	sll	t3,t3,a1
80002ebc:	00f357b3          	srl	a5,t1,a5
80002ec0:	01c7e7b3          	or	a5,a5,t3
80002ec4:	0106de13          	srli	t3,a3,0x10
80002ec8:	03c75f33          	divu	t5,a4,t3
80002ecc:	01069813          	slli	a6,a3,0x10
80002ed0:	01085813          	srli	a6,a6,0x10
80002ed4:	00b61633          	sll	a2,a2,a1
80002ed8:	03c77733          	remu	a4,a4,t3
80002edc:	03e80eb3          	mul	t4,a6,t5
80002ee0:	01071513          	slli	a0,a4,0x10
80002ee4:	0107d713          	srli	a4,a5,0x10
80002ee8:	00a76733          	or	a4,a4,a0
80002eec:	000f0513          	mv	a0,t5
80002ef0:	01d77e63          	bgeu	a4,t4,80002f0c <__divdi3+0x3a8>
80002ef4:	00e68733          	add	a4,a3,a4
80002ef8:	ffff0513          	addi	a0,t5,-1
80002efc:	00d76863          	bltu	a4,a3,80002f0c <__divdi3+0x3a8>
80002f00:	01d77663          	bgeu	a4,t4,80002f0c <__divdi3+0x3a8>
80002f04:	ffef0513          	addi	a0,t5,-2
80002f08:	00d70733          	add	a4,a4,a3
80002f0c:	41d70733          	sub	a4,a4,t4
80002f10:	03c75eb3          	divu	t4,a4,t3
80002f14:	01079793          	slli	a5,a5,0x10
80002f18:	0107d793          	srli	a5,a5,0x10
80002f1c:	03c77733          	remu	a4,a4,t3
80002f20:	03d80833          	mul	a6,a6,t4
80002f24:	01071713          	slli	a4,a4,0x10
80002f28:	00e7e7b3          	or	a5,a5,a4
80002f2c:	000e8713          	mv	a4,t4
80002f30:	0107fe63          	bgeu	a5,a6,80002f4c <__divdi3+0x3e8>
80002f34:	00f687b3          	add	a5,a3,a5
80002f38:	fffe8713          	addi	a4,t4,-1
80002f3c:	00d7e863          	bltu	a5,a3,80002f4c <__divdi3+0x3e8>
80002f40:	0107f663          	bgeu	a5,a6,80002f4c <__divdi3+0x3e8>
80002f44:	ffee8713          	addi	a4,t4,-2
80002f48:	00d787b3          	add	a5,a5,a3
80002f4c:	01051513          	slli	a0,a0,0x10
80002f50:	00010eb7          	lui	t4,0x10
80002f54:	00e56533          	or	a0,a0,a4
80002f58:	fffe8693          	addi	a3,t4,-1 # ffff <_reset-0x7fff0001>
80002f5c:	00d57733          	and	a4,a0,a3
80002f60:	410787b3          	sub	a5,a5,a6
80002f64:	00d676b3          	and	a3,a2,a3
80002f68:	01055813          	srli	a6,a0,0x10
80002f6c:	01065613          	srli	a2,a2,0x10
80002f70:	02d70e33          	mul	t3,a4,a3
80002f74:	02d806b3          	mul	a3,a6,a3
80002f78:	02c70733          	mul	a4,a4,a2
80002f7c:	02c80833          	mul	a6,a6,a2
80002f80:	00d70633          	add	a2,a4,a3
80002f84:	010e5713          	srli	a4,t3,0x10
80002f88:	00c70733          	add	a4,a4,a2
80002f8c:	00d77463          	bgeu	a4,a3,80002f94 <__divdi3+0x430>
80002f90:	01d80833          	add	a6,a6,t4
80002f94:	01075693          	srli	a3,a4,0x10
80002f98:	010686b3          	add	a3,a3,a6
80002f9c:	02d7e663          	bltu	a5,a3,80002fc8 <__divdi3+0x464>
80002fa0:	ced794e3          	bne	a5,a3,80002c88 <__divdi3+0x124>
80002fa4:	000107b7          	lui	a5,0x10
80002fa8:	fff78793          	addi	a5,a5,-1 # ffff <_reset-0x7fff0001>
80002fac:	00f77733          	and	a4,a4,a5
80002fb0:	01071713          	slli	a4,a4,0x10
80002fb4:	00fe7e33          	and	t3,t3,a5
80002fb8:	00b31333          	sll	t1,t1,a1
80002fbc:	01c70733          	add	a4,a4,t3
80002fc0:	00000593          	li	a1,0
80002fc4:	dae374e3          	bgeu	t1,a4,80002d6c <__divdi3+0x208>
80002fc8:	fff50513          	addi	a0,a0,-1 # ffffff <_reset-0x7f000001>
80002fcc:	cbdff06f          	j	80002c88 <__divdi3+0x124>
80002fd0:	00000593          	li	a1,0
80002fd4:	00000513          	li	a0,0
80002fd8:	d95ff06f          	j	80002d6c <__divdi3+0x208>

80002fdc <__moddi3>:
80002fdc:	00058e13          	mv	t3,a1
80002fe0:	00000813          	li	a6,0
80002fe4:	0005dc63          	bgez	a1,80002ffc <__moddi3+0x20>
80002fe8:	00a037b3          	snez	a5,a0
80002fec:	40b00e33          	neg	t3,a1
80002ff0:	40fe0e33          	sub	t3,t3,a5
80002ff4:	40a00533          	neg	a0,a0
80002ff8:	fff00813          	li	a6,-1
80002ffc:	0006da63          	bgez	a3,80003010 <__moddi3+0x34>
80003000:	00c037b3          	snez	a5,a2
80003004:	40d006b3          	neg	a3,a3
80003008:	40f686b3          	sub	a3,a3,a5
8000300c:	40c00633          	neg	a2,a2
80003010:	00060893          	mv	a7,a2
80003014:	00050793          	mv	a5,a0
80003018:	000e0593          	mv	a1,t3
8000301c:	24069463          	bnez	a3,80003264 <__moddi3+0x288>
80003020:	00003317          	auipc	t1,0x3
80003024:	4b030313          	addi	t1,t1,1200 # 800064d0 <__clz_tab>
80003028:	0ece7663          	bgeu	t3,a2,80003114 <__moddi3+0x138>
8000302c:	00010737          	lui	a4,0x10
80003030:	0ce67863          	bgeu	a2,a4,80003100 <__moddi3+0x124>
80003034:	10063713          	sltiu	a4,a2,256
80003038:	00174713          	xori	a4,a4,1
8000303c:	00371713          	slli	a4,a4,0x3
80003040:	00e656b3          	srl	a3,a2,a4
80003044:	00d30333          	add	t1,t1,a3
80003048:	00034683          	lbu	a3,0(t1)
8000304c:	00e68733          	add	a4,a3,a4
80003050:	02000693          	li	a3,32
80003054:	40e68333          	sub	t1,a3,a4
80003058:	00e68c63          	beq	a3,a4,80003070 <__moddi3+0x94>
8000305c:	006e15b3          	sll	a1,t3,t1
80003060:	00e55733          	srl	a4,a0,a4
80003064:	006618b3          	sll	a7,a2,t1
80003068:	00b765b3          	or	a1,a4,a1
8000306c:	006517b3          	sll	a5,a0,t1
80003070:	0108d693          	srli	a3,a7,0x10
80003074:	02d5d733          	divu	a4,a1,a3
80003078:	01089513          	slli	a0,a7,0x10
8000307c:	01055513          	srli	a0,a0,0x10
80003080:	02d5f5b3          	remu	a1,a1,a3
80003084:	02a70733          	mul	a4,a4,a0
80003088:	01059613          	slli	a2,a1,0x10
8000308c:	0107d593          	srli	a1,a5,0x10
80003090:	00c5e5b3          	or	a1,a1,a2
80003094:	00e5fa63          	bgeu	a1,a4,800030a8 <__moddi3+0xcc>
80003098:	00b885b3          	add	a1,a7,a1
8000309c:	0115e663          	bltu	a1,a7,800030a8 <__moddi3+0xcc>
800030a0:	00e5f463          	bgeu	a1,a4,800030a8 <__moddi3+0xcc>
800030a4:	011585b3          	add	a1,a1,a7
800030a8:	40e585b3          	sub	a1,a1,a4
800030ac:	02d5d733          	divu	a4,a1,a3
800030b0:	01079793          	slli	a5,a5,0x10
800030b4:	0107d793          	srli	a5,a5,0x10
800030b8:	02d5f5b3          	remu	a1,a1,a3
800030bc:	02a70733          	mul	a4,a4,a0
800030c0:	01059593          	slli	a1,a1,0x10
800030c4:	00b7e7b3          	or	a5,a5,a1
800030c8:	00e7fa63          	bgeu	a5,a4,800030dc <__moddi3+0x100>
800030cc:	00f887b3          	add	a5,a7,a5
800030d0:	0117e663          	bltu	a5,a7,800030dc <__moddi3+0x100>
800030d4:	00e7f463          	bgeu	a5,a4,800030dc <__moddi3+0x100>
800030d8:	011787b3          	add	a5,a5,a7
800030dc:	40e787b3          	sub	a5,a5,a4
800030e0:	0067d533          	srl	a0,a5,t1
800030e4:	00000593          	li	a1,0
800030e8:	00080a63          	beqz	a6,800030fc <__moddi3+0x120>
800030ec:	00a037b3          	snez	a5,a0
800030f0:	40b005b3          	neg	a1,a1
800030f4:	40f585b3          	sub	a1,a1,a5
800030f8:	40a00533          	neg	a0,a0
800030fc:	00008067          	ret
80003100:	010006b7          	lui	a3,0x1000
80003104:	01000713          	li	a4,16
80003108:	f2d66ce3          	bltu	a2,a3,80003040 <__moddi3+0x64>
8000310c:	01800713          	li	a4,24
80003110:	f31ff06f          	j	80003040 <__moddi3+0x64>
80003114:	00000693          	li	a3,0
80003118:	00060c63          	beqz	a2,80003130 <__moddi3+0x154>
8000311c:	00010737          	lui	a4,0x10
80003120:	0ae67263          	bgeu	a2,a4,800031c4 <__moddi3+0x1e8>
80003124:	10063693          	sltiu	a3,a2,256
80003128:	0016c693          	xori	a3,a3,1
8000312c:	00369693          	slli	a3,a3,0x3
80003130:	00d65733          	srl	a4,a2,a3
80003134:	00e30333          	add	t1,t1,a4
80003138:	00034703          	lbu	a4,0(t1)
8000313c:	00d70733          	add	a4,a4,a3
80003140:	02000693          	li	a3,32
80003144:	40e68333          	sub	t1,a3,a4
80003148:	08e69863          	bne	a3,a4,800031d8 <__moddi3+0x1fc>
8000314c:	40ce0733          	sub	a4,t3,a2
80003150:	0108d593          	srli	a1,a7,0x10
80003154:	02b75633          	divu	a2,a4,a1
80003158:	01089513          	slli	a0,a7,0x10
8000315c:	01055513          	srli	a0,a0,0x10
80003160:	0107d693          	srli	a3,a5,0x10
80003164:	02b77733          	remu	a4,a4,a1
80003168:	02a60633          	mul	a2,a2,a0
8000316c:	01071713          	slli	a4,a4,0x10
80003170:	00e6e733          	or	a4,a3,a4
80003174:	00c77a63          	bgeu	a4,a2,80003188 <__moddi3+0x1ac>
80003178:	00e88733          	add	a4,a7,a4
8000317c:	01176663          	bltu	a4,a7,80003188 <__moddi3+0x1ac>
80003180:	00c77463          	bgeu	a4,a2,80003188 <__moddi3+0x1ac>
80003184:	01170733          	add	a4,a4,a7
80003188:	40c70733          	sub	a4,a4,a2
8000318c:	02b756b3          	divu	a3,a4,a1
80003190:	01079793          	slli	a5,a5,0x10
80003194:	0107d793          	srli	a5,a5,0x10
80003198:	02b77733          	remu	a4,a4,a1
8000319c:	02a686b3          	mul	a3,a3,a0
800031a0:	01071713          	slli	a4,a4,0x10
800031a4:	00e7e7b3          	or	a5,a5,a4
800031a8:	00d7fa63          	bgeu	a5,a3,800031bc <__moddi3+0x1e0>
800031ac:	00f887b3          	add	a5,a7,a5
800031b0:	0117e663          	bltu	a5,a7,800031bc <__moddi3+0x1e0>
800031b4:	00d7f463          	bgeu	a5,a3,800031bc <__moddi3+0x1e0>
800031b8:	011787b3          	add	a5,a5,a7
800031bc:	40d787b3          	sub	a5,a5,a3
800031c0:	f21ff06f          	j	800030e0 <__moddi3+0x104>
800031c4:	01000737          	lui	a4,0x1000
800031c8:	01000693          	li	a3,16
800031cc:	f6e662e3          	bltu	a2,a4,80003130 <__moddi3+0x154>
800031d0:	01800693          	li	a3,24
800031d4:	f5dff06f          	j	80003130 <__moddi3+0x154>
800031d8:	006618b3          	sll	a7,a2,t1
800031dc:	00ee56b3          	srl	a3,t3,a4
800031e0:	006517b3          	sll	a5,a0,t1
800031e4:	00e55733          	srl	a4,a0,a4
800031e8:	0108d513          	srli	a0,a7,0x10
800031ec:	02a6d5b3          	divu	a1,a3,a0
800031f0:	006e1e33          	sll	t3,t3,t1
800031f4:	01c76733          	or	a4,a4,t3
800031f8:	01089e13          	slli	t3,a7,0x10
800031fc:	010e5e13          	srli	t3,t3,0x10
80003200:	02a6f6b3          	remu	a3,a3,a0
80003204:	03c585b3          	mul	a1,a1,t3
80003208:	01069613          	slli	a2,a3,0x10
8000320c:	01075693          	srli	a3,a4,0x10
80003210:	00c6e6b3          	or	a3,a3,a2
80003214:	00b6fa63          	bgeu	a3,a1,80003228 <__moddi3+0x24c>
80003218:	00d886b3          	add	a3,a7,a3
8000321c:	0116e663          	bltu	a3,a7,80003228 <__moddi3+0x24c>
80003220:	00b6f463          	bgeu	a3,a1,80003228 <__moddi3+0x24c>
80003224:	011686b3          	add	a3,a3,a7
80003228:	40b686b3          	sub	a3,a3,a1
8000322c:	02a6d633          	divu	a2,a3,a0
80003230:	01071713          	slli	a4,a4,0x10
80003234:	01075713          	srli	a4,a4,0x10
80003238:	02a6f6b3          	remu	a3,a3,a0
8000323c:	03c60633          	mul	a2,a2,t3
80003240:	01069693          	slli	a3,a3,0x10
80003244:	00d76733          	or	a4,a4,a3
80003248:	00c77a63          	bgeu	a4,a2,8000325c <__moddi3+0x280>
8000324c:	00e88733          	add	a4,a7,a4
80003250:	01176663          	bltu	a4,a7,8000325c <__moddi3+0x280>
80003254:	00c77463          	bgeu	a4,a2,8000325c <__moddi3+0x280>
80003258:	01170733          	add	a4,a4,a7
8000325c:	40c70733          	sub	a4,a4,a2
80003260:	ef1ff06f          	j	80003150 <__moddi3+0x174>
80003264:	e8de62e3          	bltu	t3,a3,800030e8 <__moddi3+0x10c>
80003268:	00010737          	lui	a4,0x10
8000326c:	04e6fc63          	bgeu	a3,a4,800032c4 <__moddi3+0x2e8>
80003270:	1006b713          	sltiu	a4,a3,256
80003274:	00174713          	xori	a4,a4,1
80003278:	00371713          	slli	a4,a4,0x3
8000327c:	00e6d333          	srl	t1,a3,a4
80003280:	00003897          	auipc	a7,0x3
80003284:	25088893          	addi	a7,a7,592 # 800064d0 <__clz_tab>
80003288:	006888b3          	add	a7,a7,t1
8000328c:	0008c883          	lbu	a7,0(a7)
80003290:	02000313          	li	t1,32
80003294:	00e888b3          	add	a7,a7,a4
80003298:	41130733          	sub	a4,t1,a7
8000329c:	03131e63          	bne	t1,a7,800032d8 <__moddi3+0x2fc>
800032a0:	01c6e463          	bltu	a3,t3,800032a8 <__moddi3+0x2cc>
800032a4:	00c56c63          	bltu	a0,a2,800032bc <__moddi3+0x2e0>
800032a8:	40c50633          	sub	a2,a0,a2
800032ac:	40de06b3          	sub	a3,t3,a3
800032b0:	00c535b3          	sltu	a1,a0,a2
800032b4:	00060793          	mv	a5,a2
800032b8:	40b685b3          	sub	a1,a3,a1
800032bc:	00078513          	mv	a0,a5
800032c0:	e29ff06f          	j	800030e8 <__moddi3+0x10c>
800032c4:	010008b7          	lui	a7,0x1000
800032c8:	01000713          	li	a4,16
800032cc:	fb16e8e3          	bltu	a3,a7,8000327c <__moddi3+0x2a0>
800032d0:	01800713          	li	a4,24
800032d4:	fa9ff06f          	j	8000327c <__moddi3+0x2a0>
800032d8:	00e696b3          	sll	a3,a3,a4
800032dc:	01165333          	srl	t1,a2,a7
800032e0:	00d36333          	or	t1,t1,a3
800032e4:	011e57b3          	srl	a5,t3,a7
800032e8:	01035e93          	srli	t4,t1,0x10
800032ec:	03d7dfb3          	divu	t6,a5,t4
800032f0:	00ee1e33          	sll	t3,t3,a4
800032f4:	011555b3          	srl	a1,a0,a7
800032f8:	01c5e5b3          	or	a1,a1,t3
800032fc:	01031e13          	slli	t3,t1,0x10
80003300:	010e5e13          	srli	t3,t3,0x10
80003304:	00e61633          	sll	a2,a2,a4
80003308:	00e51533          	sll	a0,a0,a4
8000330c:	03d7f7b3          	remu	a5,a5,t4
80003310:	03fe0f33          	mul	t5,t3,t6
80003314:	01079693          	slli	a3,a5,0x10
80003318:	0105d793          	srli	a5,a1,0x10
8000331c:	00d7e7b3          	or	a5,a5,a3
80003320:	000f8693          	mv	a3,t6
80003324:	01e7fe63          	bgeu	a5,t5,80003340 <__moddi3+0x364>
80003328:	00f307b3          	add	a5,t1,a5
8000332c:	ffff8693          	addi	a3,t6,-1
80003330:	0067e863          	bltu	a5,t1,80003340 <__moddi3+0x364>
80003334:	01e7f663          	bgeu	a5,t5,80003340 <__moddi3+0x364>
80003338:	ffef8693          	addi	a3,t6,-2
8000333c:	006787b3          	add	a5,a5,t1
80003340:	41e787b3          	sub	a5,a5,t5
80003344:	03d7df33          	divu	t5,a5,t4
80003348:	01059593          	slli	a1,a1,0x10
8000334c:	0105d593          	srli	a1,a1,0x10
80003350:	03d7f7b3          	remu	a5,a5,t4
80003354:	03ee0e33          	mul	t3,t3,t5
80003358:	01079793          	slli	a5,a5,0x10
8000335c:	00f5e5b3          	or	a1,a1,a5
80003360:	000f0793          	mv	a5,t5
80003364:	01c5fe63          	bgeu	a1,t3,80003380 <__moddi3+0x3a4>
80003368:	00b305b3          	add	a1,t1,a1
8000336c:	ffff0793          	addi	a5,t5,-1
80003370:	0065e863          	bltu	a1,t1,80003380 <__moddi3+0x3a4>
80003374:	01c5f663          	bgeu	a1,t3,80003380 <__moddi3+0x3a4>
80003378:	ffef0793          	addi	a5,t5,-2
8000337c:	006585b3          	add	a1,a1,t1
80003380:	01069693          	slli	a3,a3,0x10
80003384:	00010fb7          	lui	t6,0x10
80003388:	00f6e6b3          	or	a3,a3,a5
8000338c:	41c585b3          	sub	a1,a1,t3
80003390:	ffff8e13          	addi	t3,t6,-1 # ffff <_reset-0x7fff0001>
80003394:	01c6f7b3          	and	a5,a3,t3
80003398:	01065e93          	srli	t4,a2,0x10
8000339c:	0106d693          	srli	a3,a3,0x10
800033a0:	01c67e33          	and	t3,a2,t3
800033a4:	03c78f33          	mul	t5,a5,t3
800033a8:	03c68e33          	mul	t3,a3,t3
800033ac:	03d787b3          	mul	a5,a5,t4
800033b0:	03d686b3          	mul	a3,a3,t4
800033b4:	01c78eb3          	add	t4,a5,t3
800033b8:	010f5793          	srli	a5,t5,0x10
800033bc:	01d787b3          	add	a5,a5,t4
800033c0:	01c7f463          	bgeu	a5,t3,800033c8 <__moddi3+0x3ec>
800033c4:	01f686b3          	add	a3,a3,t6
800033c8:	0107de13          	srli	t3,a5,0x10
800033cc:	00de06b3          	add	a3,t3,a3
800033d0:	00010e37          	lui	t3,0x10
800033d4:	fffe0e13          	addi	t3,t3,-1 # ffff <_reset-0x7fff0001>
800033d8:	01c7f7b3          	and	a5,a5,t3
800033dc:	01079793          	slli	a5,a5,0x10
800033e0:	01cf7f33          	and	t5,t5,t3
800033e4:	01e787b3          	add	a5,a5,t5
800033e8:	00d5e663          	bltu	a1,a3,800033f4 <__moddi3+0x418>
800033ec:	00d59e63          	bne	a1,a3,80003408 <__moddi3+0x42c>
800033f0:	00f57c63          	bgeu	a0,a5,80003408 <__moddi3+0x42c>
800033f4:	40c78633          	sub	a2,a5,a2
800033f8:	00c7be33          	sltu	t3,a5,a2
800033fc:	00060793          	mv	a5,a2
80003400:	006e0633          	add	a2,t3,t1
80003404:	40c686b3          	sub	a3,a3,a2
80003408:	40f507b3          	sub	a5,a0,a5
8000340c:	00f53533          	sltu	a0,a0,a5
80003410:	40d585b3          	sub	a1,a1,a3
80003414:	40a585b3          	sub	a1,a1,a0
80003418:	011598b3          	sll	a7,a1,a7
8000341c:	00e7d7b3          	srl	a5,a5,a4
80003420:	00f8e533          	or	a0,a7,a5
80003424:	00e5d5b3          	srl	a1,a1,a4
80003428:	cc1ff06f          	j	800030e8 <__moddi3+0x10c>

8000342c <__errno>:
8000342c:	03c1a503          	lw	a0,60(gp) # 80007e64 <_impure_ptr>
80003430:	00008067          	ret

80003434 <__libc_init_array>:
80003434:	ff010113          	addi	sp,sp,-16
80003438:	00812423          	sw	s0,8(sp)
8000343c:	01212023          	sw	s2,0(sp)
80003440:	00004797          	auipc	a5,0x4
80003444:	1d478793          	addi	a5,a5,468 # 80007614 <__init_array_start>
80003448:	00004417          	auipc	s0,0x4
8000344c:	1cc40413          	addi	s0,s0,460 # 80007614 <__init_array_start>
80003450:	00112623          	sw	ra,12(sp)
80003454:	00912223          	sw	s1,4(sp)
80003458:	40878933          	sub	s2,a5,s0
8000345c:	02878063          	beq	a5,s0,8000347c <__libc_init_array+0x48>
80003460:	40295913          	srai	s2,s2,0x2
80003464:	00000493          	li	s1,0
80003468:	00042783          	lw	a5,0(s0)
8000346c:	00148493          	addi	s1,s1,1
80003470:	00440413          	addi	s0,s0,4
80003474:	000780e7          	jalr	a5
80003478:	ff24e8e3          	bltu	s1,s2,80003468 <__libc_init_array+0x34>
8000347c:	00004797          	auipc	a5,0x4
80003480:	1a478793          	addi	a5,a5,420 # 80007620 <__do_global_dtors_aux_fini_array_entry>
80003484:	00004417          	auipc	s0,0x4
80003488:	19040413          	addi	s0,s0,400 # 80007614 <__init_array_start>
8000348c:	40878933          	sub	s2,a5,s0
80003490:	40295913          	srai	s2,s2,0x2
80003494:	00878e63          	beq	a5,s0,800034b0 <__libc_init_array+0x7c>
80003498:	00000493          	li	s1,0
8000349c:	00042783          	lw	a5,0(s0)
800034a0:	00148493          	addi	s1,s1,1
800034a4:	00440413          	addi	s0,s0,4
800034a8:	000780e7          	jalr	a5
800034ac:	ff24e8e3          	bltu	s1,s2,8000349c <__libc_init_array+0x68>
800034b0:	00c12083          	lw	ra,12(sp)
800034b4:	00812403          	lw	s0,8(sp)
800034b8:	00412483          	lw	s1,4(sp)
800034bc:	00012903          	lw	s2,0(sp)
800034c0:	01010113          	addi	sp,sp,16
800034c4:	00008067          	ret

800034c8 <memset>:
800034c8:	00f00313          	li	t1,15
800034cc:	00050713          	mv	a4,a0
800034d0:	02c37e63          	bgeu	t1,a2,8000350c <memset+0x44>
800034d4:	00f77793          	andi	a5,a4,15
800034d8:	0a079063          	bnez	a5,80003578 <memset+0xb0>
800034dc:	08059263          	bnez	a1,80003560 <memset+0x98>
800034e0:	ff067693          	andi	a3,a2,-16
800034e4:	00f67613          	andi	a2,a2,15
800034e8:	00e686b3          	add	a3,a3,a4
800034ec:	00b72023          	sw	a1,0(a4) # 10000 <_reset-0x7fff0000>
800034f0:	00b72223          	sw	a1,4(a4)
800034f4:	00b72423          	sw	a1,8(a4)
800034f8:	00b72623          	sw	a1,12(a4)
800034fc:	01070713          	addi	a4,a4,16
80003500:	fed766e3          	bltu	a4,a3,800034ec <memset+0x24>
80003504:	00061463          	bnez	a2,8000350c <memset+0x44>
80003508:	00008067          	ret
8000350c:	40c306b3          	sub	a3,t1,a2
80003510:	00269693          	slli	a3,a3,0x2
80003514:	00000297          	auipc	t0,0x0
80003518:	005686b3          	add	a3,a3,t0
8000351c:	00c68067          	jr	12(a3) # 100000c <_reset-0x7efffff4>
80003520:	00b70723          	sb	a1,14(a4)
80003524:	00b706a3          	sb	a1,13(a4)
80003528:	00b70623          	sb	a1,12(a4)
8000352c:	00b705a3          	sb	a1,11(a4)
80003530:	00b70523          	sb	a1,10(a4)
80003534:	00b704a3          	sb	a1,9(a4)
80003538:	00b70423          	sb	a1,8(a4)
8000353c:	00b703a3          	sb	a1,7(a4)
80003540:	00b70323          	sb	a1,6(a4)
80003544:	00b702a3          	sb	a1,5(a4)
80003548:	00b70223          	sb	a1,4(a4)
8000354c:	00b701a3          	sb	a1,3(a4)
80003550:	00b70123          	sb	a1,2(a4)
80003554:	00b700a3          	sb	a1,1(a4)
80003558:	00b70023          	sb	a1,0(a4)
8000355c:	00008067          	ret
80003560:	0ff5f593          	zext.b	a1,a1
80003564:	00859693          	slli	a3,a1,0x8
80003568:	00d5e5b3          	or	a1,a1,a3
8000356c:	01059693          	slli	a3,a1,0x10
80003570:	00d5e5b3          	or	a1,a1,a3
80003574:	f6dff06f          	j	800034e0 <memset+0x18>
80003578:	00279693          	slli	a3,a5,0x2
8000357c:	00000297          	auipc	t0,0x0
80003580:	005686b3          	add	a3,a3,t0
80003584:	00008293          	mv	t0,ra
80003588:	fa0680e7          	jalr	-96(a3)
8000358c:	00028093          	mv	ra,t0
80003590:	ff078793          	addi	a5,a5,-16
80003594:	40f70733          	sub	a4,a4,a5
80003598:	00f60633          	add	a2,a2,a5
8000359c:	f6c378e3          	bgeu	t1,a2,8000350c <memset+0x44>
800035a0:	f3dff06f          	j	800034dc <memset+0x14>

800035a4 <_puts_r>:
800035a4:	fc010113          	addi	sp,sp,-64
800035a8:	02812c23          	sw	s0,56(sp)
800035ac:	00050413          	mv	s0,a0
800035b0:	00058513          	mv	a0,a1
800035b4:	02912a23          	sw	s1,52(sp)
800035b8:	02112e23          	sw	ra,60(sp)
800035bc:	00058493          	mv	s1,a1
800035c0:	0c0000ef          	jal	ra,80003680 <strlen>
800035c4:	00150713          	addi	a4,a0,1
800035c8:	00003697          	auipc	a3,0x3
800035cc:	00868693          	addi	a3,a3,8 # 800065d0 <__clz_tab+0x100>
800035d0:	00e12e23          	sw	a4,28(sp)
800035d4:	03842783          	lw	a5,56(s0)
800035d8:	02010713          	addi	a4,sp,32
800035dc:	02d12423          	sw	a3,40(sp)
800035e0:	00e12a23          	sw	a4,20(sp)
800035e4:	00100693          	li	a3,1
800035e8:	00200713          	li	a4,2
800035ec:	02912023          	sw	s1,32(sp)
800035f0:	02a12223          	sw	a0,36(sp)
800035f4:	02d12623          	sw	a3,44(sp)
800035f8:	00e12c23          	sw	a4,24(sp)
800035fc:	00842583          	lw	a1,8(s0)
80003600:	06078063          	beqz	a5,80003660 <_puts_r+0xbc>
80003604:	00c59783          	lh	a5,12(a1)
80003608:	01279713          	slli	a4,a5,0x12
8000360c:	02074263          	bltz	a4,80003630 <_puts_r+0x8c>
80003610:	0645a703          	lw	a4,100(a1)
80003614:	000026b7          	lui	a3,0x2
80003618:	00d7e7b3          	or	a5,a5,a3
8000361c:	ffffe6b7          	lui	a3,0xffffe
80003620:	fff68693          	addi	a3,a3,-1 # ffffdfff <__BSS_END__+0x7fff613b>
80003624:	00d77733          	and	a4,a4,a3
80003628:	00f59623          	sh	a5,12(a1)
8000362c:	06e5a223          	sw	a4,100(a1)
80003630:	01410613          	addi	a2,sp,20
80003634:	00040513          	mv	a0,s0
80003638:	5d8000ef          	jal	ra,80003c10 <__sfvwrite_r>
8000363c:	03c12083          	lw	ra,60(sp)
80003640:	03812403          	lw	s0,56(sp)
80003644:	00153513          	seqz	a0,a0
80003648:	40a00533          	neg	a0,a0
8000364c:	00b57513          	andi	a0,a0,11
80003650:	03412483          	lw	s1,52(sp)
80003654:	fff50513          	addi	a0,a0,-1
80003658:	04010113          	addi	sp,sp,64
8000365c:	00008067          	ret
80003660:	00040513          	mv	a0,s0
80003664:	00b12623          	sw	a1,12(sp)
80003668:	50c000ef          	jal	ra,80003b74 <__sinit>
8000366c:	00c12583          	lw	a1,12(sp)
80003670:	f95ff06f          	j	80003604 <_puts_r+0x60>

80003674 <puts>:
80003674:	00050593          	mv	a1,a0
80003678:	03c1a503          	lw	a0,60(gp) # 80007e64 <_impure_ptr>
8000367c:	f29ff06f          	j	800035a4 <_puts_r>

80003680 <strlen>:
80003680:	00357793          	andi	a5,a0,3
80003684:	00050713          	mv	a4,a0
80003688:	04079c63          	bnez	a5,800036e0 <strlen+0x60>
8000368c:	7f7f86b7          	lui	a3,0x7f7f8
80003690:	f7f68693          	addi	a3,a3,-129 # 7f7f7f7f <_reset-0x808081>
80003694:	fff00593          	li	a1,-1
80003698:	00072603          	lw	a2,0(a4)
8000369c:	00470713          	addi	a4,a4,4
800036a0:	00d677b3          	and	a5,a2,a3
800036a4:	00d787b3          	add	a5,a5,a3
800036a8:	00c7e7b3          	or	a5,a5,a2
800036ac:	00d7e7b3          	or	a5,a5,a3
800036b0:	feb784e3          	beq	a5,a1,80003698 <strlen+0x18>
800036b4:	ffc74683          	lbu	a3,-4(a4)
800036b8:	40a707b3          	sub	a5,a4,a0
800036bc:	04068463          	beqz	a3,80003704 <strlen+0x84>
800036c0:	ffd74683          	lbu	a3,-3(a4)
800036c4:	02068c63          	beqz	a3,800036fc <strlen+0x7c>
800036c8:	ffe74503          	lbu	a0,-2(a4)
800036cc:	00a03533          	snez	a0,a0
800036d0:	00f50533          	add	a0,a0,a5
800036d4:	ffe50513          	addi	a0,a0,-2
800036d8:	00008067          	ret
800036dc:	fa0688e3          	beqz	a3,8000368c <strlen+0xc>
800036e0:	00074783          	lbu	a5,0(a4)
800036e4:	00170713          	addi	a4,a4,1
800036e8:	00377693          	andi	a3,a4,3
800036ec:	fe0798e3          	bnez	a5,800036dc <strlen+0x5c>
800036f0:	40a70733          	sub	a4,a4,a0
800036f4:	fff70513          	addi	a0,a4,-1
800036f8:	00008067          	ret
800036fc:	ffd78513          	addi	a0,a5,-3
80003700:	00008067          	ret
80003704:	ffc78513          	addi	a0,a5,-4
80003708:	00008067          	ret

8000370c <__call_exitprocs>:
8000370c:	fd010113          	addi	sp,sp,-48
80003710:	01412c23          	sw	s4,24(sp)
80003714:	0301aa03          	lw	s4,48(gp) # 80007e58 <_global_impure_ptr>
80003718:	03212023          	sw	s2,32(sp)
8000371c:	148a2903          	lw	s2,328(s4)
80003720:	02112623          	sw	ra,44(sp)
80003724:	02812423          	sw	s0,40(sp)
80003728:	02912223          	sw	s1,36(sp)
8000372c:	01312e23          	sw	s3,28(sp)
80003730:	01512a23          	sw	s5,20(sp)
80003734:	01612823          	sw	s6,16(sp)
80003738:	01712623          	sw	s7,12(sp)
8000373c:	01812423          	sw	s8,8(sp)
80003740:	04090063          	beqz	s2,80003780 <__call_exitprocs+0x74>
80003744:	00050b13          	mv	s6,a0
80003748:	00058b93          	mv	s7,a1
8000374c:	00100a93          	li	s5,1
80003750:	fff00993          	li	s3,-1
80003754:	00492483          	lw	s1,4(s2)
80003758:	fff48413          	addi	s0,s1,-1
8000375c:	02044263          	bltz	s0,80003780 <__call_exitprocs+0x74>
80003760:	00249493          	slli	s1,s1,0x2
80003764:	009904b3          	add	s1,s2,s1
80003768:	040b8463          	beqz	s7,800037b0 <__call_exitprocs+0xa4>
8000376c:	1044a783          	lw	a5,260(s1)
80003770:	05778063          	beq	a5,s7,800037b0 <__call_exitprocs+0xa4>
80003774:	fff40413          	addi	s0,s0,-1
80003778:	ffc48493          	addi	s1,s1,-4
8000377c:	ff3416e3          	bne	s0,s3,80003768 <__call_exitprocs+0x5c>
80003780:	02c12083          	lw	ra,44(sp)
80003784:	02812403          	lw	s0,40(sp)
80003788:	02412483          	lw	s1,36(sp)
8000378c:	02012903          	lw	s2,32(sp)
80003790:	01c12983          	lw	s3,28(sp)
80003794:	01812a03          	lw	s4,24(sp)
80003798:	01412a83          	lw	s5,20(sp)
8000379c:	01012b03          	lw	s6,16(sp)
800037a0:	00c12b83          	lw	s7,12(sp)
800037a4:	00812c03          	lw	s8,8(sp)
800037a8:	03010113          	addi	sp,sp,48
800037ac:	00008067          	ret
800037b0:	00492783          	lw	a5,4(s2)
800037b4:	0044a683          	lw	a3,4(s1)
800037b8:	fff78793          	addi	a5,a5,-1
800037bc:	04878e63          	beq	a5,s0,80003818 <__call_exitprocs+0x10c>
800037c0:	0004a223          	sw	zero,4(s1)
800037c4:	fa0688e3          	beqz	a3,80003774 <__call_exitprocs+0x68>
800037c8:	18892783          	lw	a5,392(s2)
800037cc:	008a9733          	sll	a4,s5,s0
800037d0:	00492c03          	lw	s8,4(s2)
800037d4:	00f777b3          	and	a5,a4,a5
800037d8:	02079263          	bnez	a5,800037fc <__call_exitprocs+0xf0>
800037dc:	000680e7          	jalr	a3
800037e0:	00492703          	lw	a4,4(s2)
800037e4:	148a2783          	lw	a5,328(s4)
800037e8:	01871463          	bne	a4,s8,800037f0 <__call_exitprocs+0xe4>
800037ec:	f92784e3          	beq	a5,s2,80003774 <__call_exitprocs+0x68>
800037f0:	f80788e3          	beqz	a5,80003780 <__call_exitprocs+0x74>
800037f4:	00078913          	mv	s2,a5
800037f8:	f5dff06f          	j	80003754 <__call_exitprocs+0x48>
800037fc:	18c92783          	lw	a5,396(s2)
80003800:	0844a583          	lw	a1,132(s1)
80003804:	00f77733          	and	a4,a4,a5
80003808:	00071c63          	bnez	a4,80003820 <__call_exitprocs+0x114>
8000380c:	000b0513          	mv	a0,s6
80003810:	000680e7          	jalr	a3
80003814:	fcdff06f          	j	800037e0 <__call_exitprocs+0xd4>
80003818:	00892223          	sw	s0,4(s2)
8000381c:	fa9ff06f          	j	800037c4 <__call_exitprocs+0xb8>
80003820:	00058513          	mv	a0,a1
80003824:	000680e7          	jalr	a3
80003828:	fb9ff06f          	j	800037e0 <__call_exitprocs+0xd4>

8000382c <__fp_lock>:
8000382c:	00000513          	li	a0,0
80003830:	00008067          	ret

80003834 <_cleanup_r>:
80003834:	00002597          	auipc	a1,0x2
80003838:	dfc58593          	addi	a1,a1,-516 # 80005630 <_fclose_r>
8000383c:	1150006f          	j	80004150 <_fwalk_reent>

80003840 <__fp_unlock>:
80003840:	00000513          	li	a0,0
80003844:	00008067          	ret

80003848 <__sinit.part.0>:
80003848:	fe010113          	addi	sp,sp,-32
8000384c:	00112e23          	sw	ra,28(sp)
80003850:	00812c23          	sw	s0,24(sp)
80003854:	00912a23          	sw	s1,20(sp)
80003858:	01212823          	sw	s2,16(sp)
8000385c:	01312623          	sw	s3,12(sp)
80003860:	01412423          	sw	s4,8(sp)
80003864:	01512223          	sw	s5,4(sp)
80003868:	01612023          	sw	s6,0(sp)
8000386c:	00452403          	lw	s0,4(a0)
80003870:	00000717          	auipc	a4,0x0
80003874:	fc470713          	addi	a4,a4,-60 # 80003834 <_cleanup_r>
80003878:	02e52e23          	sw	a4,60(a0)
8000387c:	2ec50793          	addi	a5,a0,748
80003880:	00300713          	li	a4,3
80003884:	2ee52223          	sw	a4,740(a0)
80003888:	2ef52423          	sw	a5,744(a0)
8000388c:	2e052023          	sw	zero,736(a0)
80003890:	00400793          	li	a5,4
80003894:	00050913          	mv	s2,a0
80003898:	00f42623          	sw	a5,12(s0)
8000389c:	00800613          	li	a2,8
800038a0:	00000593          	li	a1,0
800038a4:	00042023          	sw	zero,0(s0)
800038a8:	00042223          	sw	zero,4(s0)
800038ac:	00042423          	sw	zero,8(s0)
800038b0:	06042223          	sw	zero,100(s0)
800038b4:	00042823          	sw	zero,16(s0)
800038b8:	00042a23          	sw	zero,20(s0)
800038bc:	00042c23          	sw	zero,24(s0)
800038c0:	05c40513          	addi	a0,s0,92
800038c4:	c05ff0ef          	jal	ra,800034c8 <memset>
800038c8:	00892483          	lw	s1,8(s2)
800038cc:	00002b17          	auipc	s6,0x2
800038d0:	9f8b0b13          	addi	s6,s6,-1544 # 800052c4 <__sread>
800038d4:	00002a97          	auipc	s5,0x2
800038d8:	a54a8a93          	addi	s5,s5,-1452 # 80005328 <__swrite>
800038dc:	00002a17          	auipc	s4,0x2
800038e0:	ad4a0a13          	addi	s4,s4,-1324 # 800053b0 <__sseek>
800038e4:	00002997          	auipc	s3,0x2
800038e8:	b4498993          	addi	s3,s3,-1212 # 80005428 <__sclose>
800038ec:	000107b7          	lui	a5,0x10
800038f0:	03642023          	sw	s6,32(s0)
800038f4:	03542223          	sw	s5,36(s0)
800038f8:	03442423          	sw	s4,40(s0)
800038fc:	03342623          	sw	s3,44(s0)
80003900:	00842e23          	sw	s0,28(s0)
80003904:	00978793          	addi	a5,a5,9 # 10009 <_reset-0x7ffefff7>
80003908:	00f4a623          	sw	a5,12(s1)
8000390c:	00800613          	li	a2,8
80003910:	00000593          	li	a1,0
80003914:	0004a023          	sw	zero,0(s1)
80003918:	0004a223          	sw	zero,4(s1)
8000391c:	0004a423          	sw	zero,8(s1)
80003920:	0604a223          	sw	zero,100(s1)
80003924:	0004a823          	sw	zero,16(s1)
80003928:	0004aa23          	sw	zero,20(s1)
8000392c:	0004ac23          	sw	zero,24(s1)
80003930:	05c48513          	addi	a0,s1,92
80003934:	b95ff0ef          	jal	ra,800034c8 <memset>
80003938:	00c92403          	lw	s0,12(s2)
8000393c:	000207b7          	lui	a5,0x20
80003940:	0364a023          	sw	s6,32(s1)
80003944:	0354a223          	sw	s5,36(s1)
80003948:	0344a423          	sw	s4,40(s1)
8000394c:	0334a623          	sw	s3,44(s1)
80003950:	0094ae23          	sw	s1,28(s1)
80003954:	01278793          	addi	a5,a5,18 # 20012 <_reset-0x7ffdffee>
80003958:	00f42623          	sw	a5,12(s0)
8000395c:	00042023          	sw	zero,0(s0)
80003960:	00042223          	sw	zero,4(s0)
80003964:	00042423          	sw	zero,8(s0)
80003968:	06042223          	sw	zero,100(s0)
8000396c:	00042823          	sw	zero,16(s0)
80003970:	00042a23          	sw	zero,20(s0)
80003974:	00042c23          	sw	zero,24(s0)
80003978:	05c40513          	addi	a0,s0,92
8000397c:	00800613          	li	a2,8
80003980:	00000593          	li	a1,0
80003984:	b45ff0ef          	jal	ra,800034c8 <memset>
80003988:	01c12083          	lw	ra,28(sp)
8000398c:	03642023          	sw	s6,32(s0)
80003990:	03542223          	sw	s5,36(s0)
80003994:	03442423          	sw	s4,40(s0)
80003998:	03342623          	sw	s3,44(s0)
8000399c:	00842e23          	sw	s0,28(s0)
800039a0:	01812403          	lw	s0,24(sp)
800039a4:	00100793          	li	a5,1
800039a8:	02f92c23          	sw	a5,56(s2)
800039ac:	01412483          	lw	s1,20(sp)
800039b0:	01012903          	lw	s2,16(sp)
800039b4:	00c12983          	lw	s3,12(sp)
800039b8:	00812a03          	lw	s4,8(sp)
800039bc:	00412a83          	lw	s5,4(sp)
800039c0:	00012b03          	lw	s6,0(sp)
800039c4:	02010113          	addi	sp,sp,32
800039c8:	00008067          	ret

800039cc <__sfmoreglue>:
800039cc:	ff010113          	addi	sp,sp,-16
800039d0:	00912223          	sw	s1,4(sp)
800039d4:	06800793          	li	a5,104
800039d8:	fff58493          	addi	s1,a1,-1
800039dc:	02f484b3          	mul	s1,s1,a5
800039e0:	01212023          	sw	s2,0(sp)
800039e4:	00058913          	mv	s2,a1
800039e8:	00812423          	sw	s0,8(sp)
800039ec:	00112623          	sw	ra,12(sp)
800039f0:	07448593          	addi	a1,s1,116
800039f4:	011000ef          	jal	ra,80004204 <_malloc_r>
800039f8:	00050413          	mv	s0,a0
800039fc:	02050063          	beqz	a0,80003a1c <__sfmoreglue+0x50>
80003a00:	00c50513          	addi	a0,a0,12
80003a04:	00042023          	sw	zero,0(s0)
80003a08:	01242223          	sw	s2,4(s0)
80003a0c:	00a42423          	sw	a0,8(s0)
80003a10:	06848613          	addi	a2,s1,104
80003a14:	00000593          	li	a1,0
80003a18:	ab1ff0ef          	jal	ra,800034c8 <memset>
80003a1c:	00c12083          	lw	ra,12(sp)
80003a20:	00040513          	mv	a0,s0
80003a24:	00812403          	lw	s0,8(sp)
80003a28:	00412483          	lw	s1,4(sp)
80003a2c:	00012903          	lw	s2,0(sp)
80003a30:	01010113          	addi	sp,sp,16
80003a34:	00008067          	ret

80003a38 <__sfp>:
80003a38:	fe010113          	addi	sp,sp,-32
80003a3c:	01212823          	sw	s2,16(sp)
80003a40:	0301a903          	lw	s2,48(gp) # 80007e58 <_global_impure_ptr>
80003a44:	03892783          	lw	a5,56(s2)
80003a48:	01312623          	sw	s3,12(sp)
80003a4c:	00112e23          	sw	ra,28(sp)
80003a50:	00812c23          	sw	s0,24(sp)
80003a54:	00912a23          	sw	s1,20(sp)
80003a58:	00050993          	mv	s3,a0
80003a5c:	0a078663          	beqz	a5,80003b08 <__sfp+0xd0>
80003a60:	2e090913          	addi	s2,s2,736
80003a64:	fff00493          	li	s1,-1
80003a68:	00492783          	lw	a5,4(s2)
80003a6c:	00892403          	lw	s0,8(s2)
80003a70:	fff78793          	addi	a5,a5,-1
80003a74:	0007d863          	bgez	a5,80003a84 <__sfp+0x4c>
80003a78:	0800006f          	j	80003af8 <__sfp+0xc0>
80003a7c:	06840413          	addi	s0,s0,104
80003a80:	06978c63          	beq	a5,s1,80003af8 <__sfp+0xc0>
80003a84:	00c41703          	lh	a4,12(s0)
80003a88:	fff78793          	addi	a5,a5,-1
80003a8c:	fe0718e3          	bnez	a4,80003a7c <__sfp+0x44>
80003a90:	ffff07b7          	lui	a5,0xffff0
80003a94:	00178793          	addi	a5,a5,1 # ffff0001 <__BSS_END__+0x7ffe813d>
80003a98:	00f42623          	sw	a5,12(s0)
80003a9c:	06042223          	sw	zero,100(s0)
80003aa0:	00042023          	sw	zero,0(s0)
80003aa4:	00042423          	sw	zero,8(s0)
80003aa8:	00042223          	sw	zero,4(s0)
80003aac:	00042823          	sw	zero,16(s0)
80003ab0:	00042a23          	sw	zero,20(s0)
80003ab4:	00042c23          	sw	zero,24(s0)
80003ab8:	00800613          	li	a2,8
80003abc:	00000593          	li	a1,0
80003ac0:	05c40513          	addi	a0,s0,92
80003ac4:	a05ff0ef          	jal	ra,800034c8 <memset>
80003ac8:	02042823          	sw	zero,48(s0)
80003acc:	02042a23          	sw	zero,52(s0)
80003ad0:	04042223          	sw	zero,68(s0)
80003ad4:	04042423          	sw	zero,72(s0)
80003ad8:	01c12083          	lw	ra,28(sp)
80003adc:	00040513          	mv	a0,s0
80003ae0:	01812403          	lw	s0,24(sp)
80003ae4:	01412483          	lw	s1,20(sp)
80003ae8:	01012903          	lw	s2,16(sp)
80003aec:	00c12983          	lw	s3,12(sp)
80003af0:	02010113          	addi	sp,sp,32
80003af4:	00008067          	ret
80003af8:	00092403          	lw	s0,0(s2)
80003afc:	00040c63          	beqz	s0,80003b14 <__sfp+0xdc>
80003b00:	00040913          	mv	s2,s0
80003b04:	f65ff06f          	j	80003a68 <__sfp+0x30>
80003b08:	00090513          	mv	a0,s2
80003b0c:	d3dff0ef          	jal	ra,80003848 <__sinit.part.0>
80003b10:	f51ff06f          	j	80003a60 <__sfp+0x28>
80003b14:	1ac00593          	li	a1,428
80003b18:	00098513          	mv	a0,s3
80003b1c:	6e8000ef          	jal	ra,80004204 <_malloc_r>
80003b20:	00050413          	mv	s0,a0
80003b24:	02050863          	beqz	a0,80003b54 <__sfp+0x11c>
80003b28:	00c50513          	addi	a0,a0,12
80003b2c:	00400793          	li	a5,4
80003b30:	00042023          	sw	zero,0(s0)
80003b34:	00f42223          	sw	a5,4(s0)
80003b38:	00a42423          	sw	a0,8(s0)
80003b3c:	1a000613          	li	a2,416
80003b40:	00000593          	li	a1,0
80003b44:	985ff0ef          	jal	ra,800034c8 <memset>
80003b48:	00892023          	sw	s0,0(s2)
80003b4c:	00040913          	mv	s2,s0
80003b50:	f19ff06f          	j	80003a68 <__sfp+0x30>
80003b54:	00092023          	sw	zero,0(s2)
80003b58:	00c00793          	li	a5,12
80003b5c:	00f9a023          	sw	a5,0(s3)
80003b60:	f79ff06f          	j	80003ad8 <__sfp+0xa0>

80003b64 <_cleanup>:
80003b64:	00002597          	auipc	a1,0x2
80003b68:	acc58593          	addi	a1,a1,-1332 # 80005630 <_fclose_r>
80003b6c:	0301a503          	lw	a0,48(gp) # 80007e58 <_global_impure_ptr>
80003b70:	5e00006f          	j	80004150 <_fwalk_reent>

80003b74 <__sinit>:
80003b74:	03852783          	lw	a5,56(a0)
80003b78:	00078463          	beqz	a5,80003b80 <__sinit+0xc>
80003b7c:	00008067          	ret
80003b80:	cc9ff06f          	j	80003848 <__sinit.part.0>

80003b84 <__sfp_lock_acquire>:
80003b84:	00008067          	ret

80003b88 <__sfp_lock_release>:
80003b88:	00008067          	ret

80003b8c <__sinit_lock_acquire>:
80003b8c:	00008067          	ret

80003b90 <__sinit_lock_release>:
80003b90:	00008067          	ret

80003b94 <__fp_lock_all>:
80003b94:	00000597          	auipc	a1,0x0
80003b98:	c9858593          	addi	a1,a1,-872 # 8000382c <__fp_lock>
80003b9c:	03c1a503          	lw	a0,60(gp) # 80007e64 <_impure_ptr>
80003ba0:	50c0006f          	j	800040ac <_fwalk>

80003ba4 <__fp_unlock_all>:
80003ba4:	00000597          	auipc	a1,0x0
80003ba8:	c9c58593          	addi	a1,a1,-868 # 80003840 <__fp_unlock>
80003bac:	03c1a503          	lw	a0,60(gp) # 80007e64 <_impure_ptr>
80003bb0:	4fc0006f          	j	800040ac <_fwalk>

80003bb4 <__libc_fini_array>:
80003bb4:	ff010113          	addi	sp,sp,-16
80003bb8:	00812423          	sw	s0,8(sp)
80003bbc:	00004797          	auipc	a5,0x4
80003bc0:	a6478793          	addi	a5,a5,-1436 # 80007620 <__do_global_dtors_aux_fini_array_entry>
80003bc4:	00004417          	auipc	s0,0x4
80003bc8:	a6040413          	addi	s0,s0,-1440 # 80007624 <__fini_array_end>
80003bcc:	40f40433          	sub	s0,s0,a5
80003bd0:	00912223          	sw	s1,4(sp)
80003bd4:	00112623          	sw	ra,12(sp)
80003bd8:	40245493          	srai	s1,s0,0x2
80003bdc:	02048063          	beqz	s1,80003bfc <__libc_fini_array+0x48>
80003be0:	ffc40413          	addi	s0,s0,-4
80003be4:	00f40433          	add	s0,s0,a5
80003be8:	00042783          	lw	a5,0(s0)
80003bec:	fff48493          	addi	s1,s1,-1
80003bf0:	ffc40413          	addi	s0,s0,-4
80003bf4:	000780e7          	jalr	a5
80003bf8:	fe0498e3          	bnez	s1,80003be8 <__libc_fini_array+0x34>
80003bfc:	00c12083          	lw	ra,12(sp)
80003c00:	00812403          	lw	s0,8(sp)
80003c04:	00412483          	lw	s1,4(sp)
80003c08:	01010113          	addi	sp,sp,16
80003c0c:	00008067          	ret

80003c10 <__sfvwrite_r>:
80003c10:	00862783          	lw	a5,8(a2)
80003c14:	30078a63          	beqz	a5,80003f28 <__sfvwrite_r+0x318>
80003c18:	00c59683          	lh	a3,12(a1)
80003c1c:	fd010113          	addi	sp,sp,-48
80003c20:	02812423          	sw	s0,40(sp)
80003c24:	01412c23          	sw	s4,24(sp)
80003c28:	01612823          	sw	s6,16(sp)
80003c2c:	02112623          	sw	ra,44(sp)
80003c30:	02912223          	sw	s1,36(sp)
80003c34:	03212023          	sw	s2,32(sp)
80003c38:	01312e23          	sw	s3,28(sp)
80003c3c:	01512a23          	sw	s5,20(sp)
80003c40:	01712623          	sw	s7,12(sp)
80003c44:	01812423          	sw	s8,8(sp)
80003c48:	01912223          	sw	s9,4(sp)
80003c4c:	0086f793          	andi	a5,a3,8
80003c50:	00060b13          	mv	s6,a2
80003c54:	00050a13          	mv	s4,a0
80003c58:	00058413          	mv	s0,a1
80003c5c:	08078663          	beqz	a5,80003ce8 <__sfvwrite_r+0xd8>
80003c60:	0105a783          	lw	a5,16(a1)
80003c64:	08078263          	beqz	a5,80003ce8 <__sfvwrite_r+0xd8>
80003c68:	0026f793          	andi	a5,a3,2
80003c6c:	000b2483          	lw	s1,0(s6)
80003c70:	08078c63          	beqz	a5,80003d08 <__sfvwrite_r+0xf8>
80003c74:	02442783          	lw	a5,36(s0)
80003c78:	01c42583          	lw	a1,28(s0)
80003c7c:	80000ab7          	lui	s5,0x80000
80003c80:	00000993          	li	s3,0
80003c84:	00000913          	li	s2,0
80003c88:	c00aca93          	xori	s5,s5,-1024
80003c8c:	00098613          	mv	a2,s3
80003c90:	000a0513          	mv	a0,s4
80003c94:	04090263          	beqz	s2,80003cd8 <__sfvwrite_r+0xc8>
80003c98:	00090693          	mv	a3,s2
80003c9c:	012af463          	bgeu	s5,s2,80003ca4 <__sfvwrite_r+0x94>
80003ca0:	000a8693          	mv	a3,s5
80003ca4:	000780e7          	jalr	a5
80003ca8:	26a05663          	blez	a0,80003f14 <__sfvwrite_r+0x304>
80003cac:	008b2783          	lw	a5,8(s6)
80003cb0:	00a989b3          	add	s3,s3,a0
80003cb4:	40a90933          	sub	s2,s2,a0
80003cb8:	40a787b3          	sub	a5,a5,a0
80003cbc:	00fb2423          	sw	a5,8(s6)
80003cc0:	20078663          	beqz	a5,80003ecc <__sfvwrite_r+0x2bc>
80003cc4:	02442783          	lw	a5,36(s0)
80003cc8:	01c42583          	lw	a1,28(s0)
80003ccc:	00098613          	mv	a2,s3
80003cd0:	000a0513          	mv	a0,s4
80003cd4:	fc0912e3          	bnez	s2,80003c98 <__sfvwrite_r+0x88>
80003cd8:	0004a983          	lw	s3,0(s1)
80003cdc:	0044a903          	lw	s2,4(s1)
80003ce0:	00848493          	addi	s1,s1,8
80003ce4:	fa9ff06f          	j	80003c8c <__sfvwrite_r+0x7c>
80003ce8:	00040593          	mv	a1,s0
80003cec:	000a0513          	mv	a0,s4
80003cf0:	79c010ef          	jal	ra,8000548c <__swsetup_r>
80003cf4:	22051663          	bnez	a0,80003f20 <__sfvwrite_r+0x310>
80003cf8:	00c41683          	lh	a3,12(s0)
80003cfc:	000b2483          	lw	s1,0(s6)
80003d00:	0026f793          	andi	a5,a3,2
80003d04:	f60798e3          	bnez	a5,80003c74 <__sfvwrite_r+0x64>
80003d08:	0016f793          	andi	a5,a3,1
80003d0c:	12079c63          	bnez	a5,80003e44 <__sfvwrite_r+0x234>
80003d10:	00042783          	lw	a5,0(s0)
80003d14:	00842703          	lw	a4,8(s0)
80003d18:	80000ab7          	lui	s5,0x80000
80003d1c:	00000b93          	li	s7,0
80003d20:	00000993          	li	s3,0
80003d24:	fffaca93          	not	s5,s5
80003d28:	00078513          	mv	a0,a5
80003d2c:	00070c13          	mv	s8,a4
80003d30:	10098263          	beqz	s3,80003e34 <__sfvwrite_r+0x224>
80003d34:	2006f613          	andi	a2,a3,512
80003d38:	24060c63          	beqz	a2,80003f90 <__sfvwrite_r+0x380>
80003d3c:	00070c93          	mv	s9,a4
80003d40:	2ee9e463          	bltu	s3,a4,80004028 <__sfvwrite_r+0x418>
80003d44:	4806f713          	andi	a4,a3,1152
80003d48:	08070a63          	beqz	a4,80003ddc <__sfvwrite_r+0x1cc>
80003d4c:	01442603          	lw	a2,20(s0)
80003d50:	01042583          	lw	a1,16(s0)
80003d54:	00161713          	slli	a4,a2,0x1
80003d58:	00c70733          	add	a4,a4,a2
80003d5c:	40b78933          	sub	s2,a5,a1
80003d60:	01f75c13          	srli	s8,a4,0x1f
80003d64:	00ec0c33          	add	s8,s8,a4
80003d68:	00190793          	addi	a5,s2,1
80003d6c:	401c5c13          	srai	s8,s8,0x1
80003d70:	013787b3          	add	a5,a5,s3
80003d74:	000c0613          	mv	a2,s8
80003d78:	00fc7663          	bgeu	s8,a5,80003d84 <__sfvwrite_r+0x174>
80003d7c:	00078c13          	mv	s8,a5
80003d80:	00078613          	mv	a2,a5
80003d84:	4006f693          	andi	a3,a3,1024
80003d88:	2c068c63          	beqz	a3,80004060 <__sfvwrite_r+0x450>
80003d8c:	00060593          	mv	a1,a2
80003d90:	000a0513          	mv	a0,s4
80003d94:	470000ef          	jal	ra,80004204 <_malloc_r>
80003d98:	00050c93          	mv	s9,a0
80003d9c:	30050063          	beqz	a0,8000409c <__sfvwrite_r+0x48c>
80003da0:	01042583          	lw	a1,16(s0)
80003da4:	00090613          	mv	a2,s2
80003da8:	4ad000ef          	jal	ra,80004a54 <memcpy>
80003dac:	00c45783          	lhu	a5,12(s0)
80003db0:	b7f7f793          	andi	a5,a5,-1153
80003db4:	0807e793          	ori	a5,a5,128
80003db8:	00f41623          	sh	a5,12(s0)
80003dbc:	012c8533          	add	a0,s9,s2
80003dc0:	412c07b3          	sub	a5,s8,s2
80003dc4:	01942823          	sw	s9,16(s0)
80003dc8:	01842a23          	sw	s8,20(s0)
80003dcc:	00a42023          	sw	a0,0(s0)
80003dd0:	00098c13          	mv	s8,s3
80003dd4:	00f42423          	sw	a5,8(s0)
80003dd8:	00098c93          	mv	s9,s3
80003ddc:	000c8613          	mv	a2,s9
80003de0:	000b8593          	mv	a1,s7
80003de4:	615000ef          	jal	ra,80004bf8 <memmove>
80003de8:	00842703          	lw	a4,8(s0)
80003dec:	00042783          	lw	a5,0(s0)
80003df0:	00098913          	mv	s2,s3
80003df4:	41870733          	sub	a4,a4,s8
80003df8:	019787b3          	add	a5,a5,s9
80003dfc:	00e42423          	sw	a4,8(s0)
80003e00:	00f42023          	sw	a5,0(s0)
80003e04:	00000993          	li	s3,0
80003e08:	008b2783          	lw	a5,8(s6)
80003e0c:	012b8bb3          	add	s7,s7,s2
80003e10:	412787b3          	sub	a5,a5,s2
80003e14:	00fb2423          	sw	a5,8(s6)
80003e18:	0a078a63          	beqz	a5,80003ecc <__sfvwrite_r+0x2bc>
80003e1c:	00042783          	lw	a5,0(s0)
80003e20:	00842703          	lw	a4,8(s0)
80003e24:	00c41683          	lh	a3,12(s0)
80003e28:	00078513          	mv	a0,a5
80003e2c:	00070c13          	mv	s8,a4
80003e30:	f00992e3          	bnez	s3,80003d34 <__sfvwrite_r+0x124>
80003e34:	0004ab83          	lw	s7,0(s1)
80003e38:	0044a983          	lw	s3,4(s1)
80003e3c:	00848493          	addi	s1,s1,8
80003e40:	ee9ff06f          	j	80003d28 <__sfvwrite_r+0x118>
80003e44:	00000a93          	li	s5,0
80003e48:	00000513          	li	a0,0
80003e4c:	00000c13          	li	s8,0
80003e50:	00000993          	li	s3,0
80003e54:	0c098e63          	beqz	s3,80003f30 <__sfvwrite_r+0x320>
80003e58:	0e050663          	beqz	a0,80003f44 <__sfvwrite_r+0x334>
80003e5c:	000a8793          	mv	a5,s5
80003e60:	00098b93          	mv	s7,s3
80003e64:	0137f463          	bgeu	a5,s3,80003e6c <__sfvwrite_r+0x25c>
80003e68:	00078b93          	mv	s7,a5
80003e6c:	00042503          	lw	a0,0(s0)
80003e70:	01042783          	lw	a5,16(s0)
80003e74:	00842903          	lw	s2,8(s0)
80003e78:	01442683          	lw	a3,20(s0)
80003e7c:	00a7f663          	bgeu	a5,a0,80003e88 <__sfvwrite_r+0x278>
80003e80:	00d90933          	add	s2,s2,a3
80003e84:	0f794063          	blt	s2,s7,80003f64 <__sfvwrite_r+0x354>
80003e88:	1adbc663          	blt	s7,a3,80004034 <__sfvwrite_r+0x424>
80003e8c:	02442783          	lw	a5,36(s0)
80003e90:	01c42583          	lw	a1,28(s0)
80003e94:	000c0613          	mv	a2,s8
80003e98:	000a0513          	mv	a0,s4
80003e9c:	000780e7          	jalr	a5
80003ea0:	00050913          	mv	s2,a0
80003ea4:	06a05863          	blez	a0,80003f14 <__sfvwrite_r+0x304>
80003ea8:	412a8ab3          	sub	s5,s5,s2
80003eac:	00100513          	li	a0,1
80003eb0:	040a8a63          	beqz	s5,80003f04 <__sfvwrite_r+0x2f4>
80003eb4:	008b2783          	lw	a5,8(s6)
80003eb8:	012c0c33          	add	s8,s8,s2
80003ebc:	412989b3          	sub	s3,s3,s2
80003ec0:	412787b3          	sub	a5,a5,s2
80003ec4:	00fb2423          	sw	a5,8(s6)
80003ec8:	f80796e3          	bnez	a5,80003e54 <__sfvwrite_r+0x244>
80003ecc:	00000513          	li	a0,0
80003ed0:	02c12083          	lw	ra,44(sp)
80003ed4:	02812403          	lw	s0,40(sp)
80003ed8:	02412483          	lw	s1,36(sp)
80003edc:	02012903          	lw	s2,32(sp)
80003ee0:	01c12983          	lw	s3,28(sp)
80003ee4:	01812a03          	lw	s4,24(sp)
80003ee8:	01412a83          	lw	s5,20(sp)
80003eec:	01012b03          	lw	s6,16(sp)
80003ef0:	00c12b83          	lw	s7,12(sp)
80003ef4:	00812c03          	lw	s8,8(sp)
80003ef8:	00412c83          	lw	s9,4(sp)
80003efc:	03010113          	addi	sp,sp,48
80003f00:	00008067          	ret
80003f04:	00040593          	mv	a1,s0
80003f08:	000a0513          	mv	a0,s4
80003f0c:	28d010ef          	jal	ra,80005998 <_fflush_r>
80003f10:	fa0502e3          	beqz	a0,80003eb4 <__sfvwrite_r+0x2a4>
80003f14:	00c41783          	lh	a5,12(s0)
80003f18:	0407e793          	ori	a5,a5,64
80003f1c:	00f41623          	sh	a5,12(s0)
80003f20:	fff00513          	li	a0,-1
80003f24:	fadff06f          	j	80003ed0 <__sfvwrite_r+0x2c0>
80003f28:	00000513          	li	a0,0
80003f2c:	00008067          	ret
80003f30:	0044a983          	lw	s3,4(s1)
80003f34:	00048793          	mv	a5,s1
80003f38:	00848493          	addi	s1,s1,8
80003f3c:	fe098ae3          	beqz	s3,80003f30 <__sfvwrite_r+0x320>
80003f40:	0007ac03          	lw	s8,0(a5)
80003f44:	00098613          	mv	a2,s3
80003f48:	00a00593          	li	a1,10
80003f4c:	000c0513          	mv	a0,s8
80003f50:	241000ef          	jal	ra,80004990 <memchr>
80003f54:	12050e63          	beqz	a0,80004090 <__sfvwrite_r+0x480>
80003f58:	00150513          	addi	a0,a0,1
80003f5c:	41850ab3          	sub	s5,a0,s8
80003f60:	efdff06f          	j	80003e5c <__sfvwrite_r+0x24c>
80003f64:	000c0593          	mv	a1,s8
80003f68:	00090613          	mv	a2,s2
80003f6c:	48d000ef          	jal	ra,80004bf8 <memmove>
80003f70:	00042783          	lw	a5,0(s0)
80003f74:	00040593          	mv	a1,s0
80003f78:	000a0513          	mv	a0,s4
80003f7c:	012787b3          	add	a5,a5,s2
80003f80:	00f42023          	sw	a5,0(s0)
80003f84:	215010ef          	jal	ra,80005998 <_fflush_r>
80003f88:	f20500e3          	beqz	a0,80003ea8 <__sfvwrite_r+0x298>
80003f8c:	f89ff06f          	j	80003f14 <__sfvwrite_r+0x304>
80003f90:	01042683          	lw	a3,16(s0)
80003f94:	04f6e263          	bltu	a3,a5,80003fd8 <__sfvwrite_r+0x3c8>
80003f98:	01442603          	lw	a2,20(s0)
80003f9c:	02c9ee63          	bltu	s3,a2,80003fd8 <__sfvwrite_r+0x3c8>
80003fa0:	00098793          	mv	a5,s3
80003fa4:	013af463          	bgeu	s5,s3,80003fac <__sfvwrite_r+0x39c>
80003fa8:	000a8793          	mv	a5,s5
80003fac:	02c7e6b3          	rem	a3,a5,a2
80003fb0:	02442703          	lw	a4,36(s0)
80003fb4:	01c42583          	lw	a1,28(s0)
80003fb8:	000b8613          	mv	a2,s7
80003fbc:	000a0513          	mv	a0,s4
80003fc0:	40d786b3          	sub	a3,a5,a3
80003fc4:	000700e7          	jalr	a4
80003fc8:	00050913          	mv	s2,a0
80003fcc:	f4a054e3          	blez	a0,80003f14 <__sfvwrite_r+0x304>
80003fd0:	412989b3          	sub	s3,s3,s2
80003fd4:	e35ff06f          	j	80003e08 <__sfvwrite_r+0x1f8>
80003fd8:	00070913          	mv	s2,a4
80003fdc:	00e9f463          	bgeu	s3,a4,80003fe4 <__sfvwrite_r+0x3d4>
80003fe0:	00098913          	mv	s2,s3
80003fe4:	00078513          	mv	a0,a5
80003fe8:	00090613          	mv	a2,s2
80003fec:	000b8593          	mv	a1,s7
80003ff0:	409000ef          	jal	ra,80004bf8 <memmove>
80003ff4:	00842703          	lw	a4,8(s0)
80003ff8:	00042783          	lw	a5,0(s0)
80003ffc:	41270733          	sub	a4,a4,s2
80004000:	012787b3          	add	a5,a5,s2
80004004:	00e42423          	sw	a4,8(s0)
80004008:	00f42023          	sw	a5,0(s0)
8000400c:	fc0712e3          	bnez	a4,80003fd0 <__sfvwrite_r+0x3c0>
80004010:	00040593          	mv	a1,s0
80004014:	000a0513          	mv	a0,s4
80004018:	181010ef          	jal	ra,80005998 <_fflush_r>
8000401c:	ee051ce3          	bnez	a0,80003f14 <__sfvwrite_r+0x304>
80004020:	412989b3          	sub	s3,s3,s2
80004024:	de5ff06f          	j	80003e08 <__sfvwrite_r+0x1f8>
80004028:	00098c13          	mv	s8,s3
8000402c:	00098c93          	mv	s9,s3
80004030:	dadff06f          	j	80003ddc <__sfvwrite_r+0x1cc>
80004034:	000b8613          	mv	a2,s7
80004038:	000c0593          	mv	a1,s8
8000403c:	3bd000ef          	jal	ra,80004bf8 <memmove>
80004040:	00842703          	lw	a4,8(s0)
80004044:	00042783          	lw	a5,0(s0)
80004048:	000b8913          	mv	s2,s7
8000404c:	41770733          	sub	a4,a4,s7
80004050:	017787b3          	add	a5,a5,s7
80004054:	00e42423          	sw	a4,8(s0)
80004058:	00f42023          	sw	a5,0(s0)
8000405c:	e4dff06f          	j	80003ea8 <__sfvwrite_r+0x298>
80004060:	000a0513          	mv	a0,s4
80004064:	4b9000ef          	jal	ra,80004d1c <_realloc_r>
80004068:	00050c93          	mv	s9,a0
8000406c:	d40518e3          	bnez	a0,80003dbc <__sfvwrite_r+0x1ac>
80004070:	01042583          	lw	a1,16(s0)
80004074:	000a0513          	mv	a0,s4
80004078:	331010ef          	jal	ra,80005ba8 <_free_r>
8000407c:	00c41783          	lh	a5,12(s0)
80004080:	00c00713          	li	a4,12
80004084:	00ea2023          	sw	a4,0(s4)
80004088:	f7f7f793          	andi	a5,a5,-129
8000408c:	e8dff06f          	j	80003f18 <__sfvwrite_r+0x308>
80004090:	00198793          	addi	a5,s3,1
80004094:	00078a93          	mv	s5,a5
80004098:	dc9ff06f          	j	80003e60 <__sfvwrite_r+0x250>
8000409c:	00c00713          	li	a4,12
800040a0:	00c41783          	lh	a5,12(s0)
800040a4:	00ea2023          	sw	a4,0(s4)
800040a8:	e71ff06f          	j	80003f18 <__sfvwrite_r+0x308>

800040ac <_fwalk>:
800040ac:	fe010113          	addi	sp,sp,-32
800040b0:	01212823          	sw	s2,16(sp)
800040b4:	01312623          	sw	s3,12(sp)
800040b8:	01412423          	sw	s4,8(sp)
800040bc:	01512223          	sw	s5,4(sp)
800040c0:	01612023          	sw	s6,0(sp)
800040c4:	00112e23          	sw	ra,28(sp)
800040c8:	00812c23          	sw	s0,24(sp)
800040cc:	00912a23          	sw	s1,20(sp)
800040d0:	00058b13          	mv	s6,a1
800040d4:	2e050a93          	addi	s5,a0,736
800040d8:	00000a13          	li	s4,0
800040dc:	00100993          	li	s3,1
800040e0:	fff00913          	li	s2,-1
800040e4:	004aa483          	lw	s1,4(s5) # 80000004 <__BSS_END__+0xffff8140>
800040e8:	008aa403          	lw	s0,8(s5)
800040ec:	fff48493          	addi	s1,s1,-1
800040f0:	0204c663          	bltz	s1,8000411c <_fwalk+0x70>
800040f4:	00c45783          	lhu	a5,12(s0)
800040f8:	fff48493          	addi	s1,s1,-1
800040fc:	00f9fc63          	bgeu	s3,a5,80004114 <_fwalk+0x68>
80004100:	00e41783          	lh	a5,14(s0)
80004104:	00040513          	mv	a0,s0
80004108:	01278663          	beq	a5,s2,80004114 <_fwalk+0x68>
8000410c:	000b00e7          	jalr	s6
80004110:	00aa6a33          	or	s4,s4,a0
80004114:	06840413          	addi	s0,s0,104
80004118:	fd249ee3          	bne	s1,s2,800040f4 <_fwalk+0x48>
8000411c:	000aaa83          	lw	s5,0(s5)
80004120:	fc0a92e3          	bnez	s5,800040e4 <_fwalk+0x38>
80004124:	01c12083          	lw	ra,28(sp)
80004128:	01812403          	lw	s0,24(sp)
8000412c:	01412483          	lw	s1,20(sp)
80004130:	01012903          	lw	s2,16(sp)
80004134:	00c12983          	lw	s3,12(sp)
80004138:	00412a83          	lw	s5,4(sp)
8000413c:	00012b03          	lw	s6,0(sp)
80004140:	000a0513          	mv	a0,s4
80004144:	00812a03          	lw	s4,8(sp)
80004148:	02010113          	addi	sp,sp,32
8000414c:	00008067          	ret

80004150 <_fwalk_reent>:
80004150:	fd010113          	addi	sp,sp,-48
80004154:	03212023          	sw	s2,32(sp)
80004158:	01312e23          	sw	s3,28(sp)
8000415c:	01412c23          	sw	s4,24(sp)
80004160:	01512a23          	sw	s5,20(sp)
80004164:	01612823          	sw	s6,16(sp)
80004168:	01712623          	sw	s7,12(sp)
8000416c:	02112623          	sw	ra,44(sp)
80004170:	02812423          	sw	s0,40(sp)
80004174:	02912223          	sw	s1,36(sp)
80004178:	00050a93          	mv	s5,a0
8000417c:	00058b93          	mv	s7,a1
80004180:	2e050b13          	addi	s6,a0,736
80004184:	00000a13          	li	s4,0
80004188:	00100993          	li	s3,1
8000418c:	fff00913          	li	s2,-1
80004190:	004b2483          	lw	s1,4(s6)
80004194:	008b2403          	lw	s0,8(s6)
80004198:	fff48493          	addi	s1,s1,-1
8000419c:	0204c863          	bltz	s1,800041cc <_fwalk_reent+0x7c>
800041a0:	00c45783          	lhu	a5,12(s0)
800041a4:	fff48493          	addi	s1,s1,-1
800041a8:	00f9fe63          	bgeu	s3,a5,800041c4 <_fwalk_reent+0x74>
800041ac:	00e41783          	lh	a5,14(s0)
800041b0:	00040593          	mv	a1,s0
800041b4:	000a8513          	mv	a0,s5
800041b8:	01278663          	beq	a5,s2,800041c4 <_fwalk_reent+0x74>
800041bc:	000b80e7          	jalr	s7
800041c0:	00aa6a33          	or	s4,s4,a0
800041c4:	06840413          	addi	s0,s0,104
800041c8:	fd249ce3          	bne	s1,s2,800041a0 <_fwalk_reent+0x50>
800041cc:	000b2b03          	lw	s6,0(s6)
800041d0:	fc0b10e3          	bnez	s6,80004190 <_fwalk_reent+0x40>
800041d4:	02c12083          	lw	ra,44(sp)
800041d8:	02812403          	lw	s0,40(sp)
800041dc:	02412483          	lw	s1,36(sp)
800041e0:	02012903          	lw	s2,32(sp)
800041e4:	01c12983          	lw	s3,28(sp)
800041e8:	01412a83          	lw	s5,20(sp)
800041ec:	01012b03          	lw	s6,16(sp)
800041f0:	00c12b83          	lw	s7,12(sp)
800041f4:	000a0513          	mv	a0,s4
800041f8:	01812a03          	lw	s4,24(sp)
800041fc:	03010113          	addi	sp,sp,48
80004200:	00008067          	ret

80004204 <_malloc_r>:
80004204:	fd010113          	addi	sp,sp,-48
80004208:	03212023          	sw	s2,32(sp)
8000420c:	02112623          	sw	ra,44(sp)
80004210:	02812423          	sw	s0,40(sp)
80004214:	02912223          	sw	s1,36(sp)
80004218:	01312e23          	sw	s3,28(sp)
8000421c:	01412c23          	sw	s4,24(sp)
80004220:	01512a23          	sw	s5,20(sp)
80004224:	01612823          	sw	s6,16(sp)
80004228:	01712623          	sw	s7,12(sp)
8000422c:	01812423          	sw	s8,8(sp)
80004230:	01912223          	sw	s9,4(sp)
80004234:	00b58793          	addi	a5,a1,11
80004238:	01600713          	li	a4,22
8000423c:	00050913          	mv	s2,a0
80004240:	08f76e63          	bltu	a4,a5,800042dc <_malloc_r+0xd8>
80004244:	01000793          	li	a5,16
80004248:	22b7e063          	bltu	a5,a1,80004468 <_malloc_r+0x264>
8000424c:	2c9000ef          	jal	ra,80004d14 <__malloc_lock>
80004250:	01000493          	li	s1,16
80004254:	01800793          	li	a5,24
80004258:	00200593          	li	a1,2
8000425c:	00003997          	auipc	s3,0x3
80004260:	7f498993          	addi	s3,s3,2036 # 80007a50 <__malloc_av_>
80004264:	00f987b3          	add	a5,s3,a5
80004268:	0047a403          	lw	s0,4(a5)
8000426c:	ff878713          	addi	a4,a5,-8
80004270:	30e40a63          	beq	s0,a4,80004584 <_malloc_r+0x380>
80004274:	00442783          	lw	a5,4(s0)
80004278:	00c42683          	lw	a3,12(s0)
8000427c:	00842603          	lw	a2,8(s0)
80004280:	ffc7f793          	andi	a5,a5,-4
80004284:	00f407b3          	add	a5,s0,a5
80004288:	0047a703          	lw	a4,4(a5)
8000428c:	00d62623          	sw	a3,12(a2)
80004290:	00c6a423          	sw	a2,8(a3)
80004294:	00176713          	ori	a4,a4,1
80004298:	00090513          	mv	a0,s2
8000429c:	00e7a223          	sw	a4,4(a5)
800042a0:	279000ef          	jal	ra,80004d18 <__malloc_unlock>
800042a4:	00840513          	addi	a0,s0,8
800042a8:	02c12083          	lw	ra,44(sp)
800042ac:	02812403          	lw	s0,40(sp)
800042b0:	02412483          	lw	s1,36(sp)
800042b4:	02012903          	lw	s2,32(sp)
800042b8:	01c12983          	lw	s3,28(sp)
800042bc:	01812a03          	lw	s4,24(sp)
800042c0:	01412a83          	lw	s5,20(sp)
800042c4:	01012b03          	lw	s6,16(sp)
800042c8:	00c12b83          	lw	s7,12(sp)
800042cc:	00812c03          	lw	s8,8(sp)
800042d0:	00412c83          	lw	s9,4(sp)
800042d4:	03010113          	addi	sp,sp,48
800042d8:	00008067          	ret
800042dc:	ff87f493          	andi	s1,a5,-8
800042e0:	1807c463          	bltz	a5,80004468 <_malloc_r+0x264>
800042e4:	18b4e263          	bltu	s1,a1,80004468 <_malloc_r+0x264>
800042e8:	22d000ef          	jal	ra,80004d14 <__malloc_lock>
800042ec:	1f700793          	li	a5,503
800042f0:	3a97f463          	bgeu	a5,s1,80004698 <_malloc_r+0x494>
800042f4:	0094d793          	srli	a5,s1,0x9
800042f8:	18078063          	beqz	a5,80004478 <_malloc_r+0x274>
800042fc:	00400713          	li	a4,4
80004300:	2ef76a63          	bltu	a4,a5,800045f4 <_malloc_r+0x3f0>
80004304:	0064d793          	srli	a5,s1,0x6
80004308:	03978593          	addi	a1,a5,57
8000430c:	03878513          	addi	a0,a5,56
80004310:	00359693          	slli	a3,a1,0x3
80004314:	00003997          	auipc	s3,0x3
80004318:	73c98993          	addi	s3,s3,1852 # 80007a50 <__malloc_av_>
8000431c:	00d986b3          	add	a3,s3,a3
80004320:	0046a403          	lw	s0,4(a3)
80004324:	ff868693          	addi	a3,a3,-8
80004328:	02868663          	beq	a3,s0,80004354 <_malloc_r+0x150>
8000432c:	00f00613          	li	a2,15
80004330:	0100006f          	j	80004340 <_malloc_r+0x13c>
80004334:	24075263          	bgez	a4,80004578 <_malloc_r+0x374>
80004338:	00c42403          	lw	s0,12(s0)
8000433c:	00868c63          	beq	a3,s0,80004354 <_malloc_r+0x150>
80004340:	00442783          	lw	a5,4(s0)
80004344:	ffc7f793          	andi	a5,a5,-4
80004348:	40978733          	sub	a4,a5,s1
8000434c:	fee654e3          	bge	a2,a4,80004334 <_malloc_r+0x130>
80004350:	00050593          	mv	a1,a0
80004354:	0109a403          	lw	s0,16(s3)
80004358:	00003897          	auipc	a7,0x3
8000435c:	70088893          	addi	a7,a7,1792 # 80007a58 <__malloc_av_+0x8>
80004360:	1f140463          	beq	s0,a7,80004548 <_malloc_r+0x344>
80004364:	00442783          	lw	a5,4(s0)
80004368:	00f00693          	li	a3,15
8000436c:	ffc7f793          	andi	a5,a5,-4
80004370:	40978733          	sub	a4,a5,s1
80004374:	32e6c863          	blt	a3,a4,800046a4 <_malloc_r+0x4a0>
80004378:	0119aa23          	sw	a7,20(s3)
8000437c:	0119a823          	sw	a7,16(s3)
80004380:	2e075c63          	bgez	a4,80004678 <_malloc_r+0x474>
80004384:	1ff00713          	li	a4,511
80004388:	0049a503          	lw	a0,4(s3)
8000438c:	20f76463          	bltu	a4,a5,80004594 <_malloc_r+0x390>
80004390:	ff87f713          	andi	a4,a5,-8
80004394:	00870713          	addi	a4,a4,8
80004398:	00e98733          	add	a4,s3,a4
8000439c:	00072683          	lw	a3,0(a4)
800043a0:	0057d613          	srli	a2,a5,0x5
800043a4:	00100793          	li	a5,1
800043a8:	00c797b3          	sll	a5,a5,a2
800043ac:	00f56533          	or	a0,a0,a5
800043b0:	ff870793          	addi	a5,a4,-8
800043b4:	00f42623          	sw	a5,12(s0)
800043b8:	00d42423          	sw	a3,8(s0)
800043bc:	00a9a223          	sw	a0,4(s3)
800043c0:	00872023          	sw	s0,0(a4)
800043c4:	0086a623          	sw	s0,12(a3)
800043c8:	4025d793          	srai	a5,a1,0x2
800043cc:	00100613          	li	a2,1
800043d0:	00f61633          	sll	a2,a2,a5
800043d4:	0ac56a63          	bltu	a0,a2,80004488 <_malloc_r+0x284>
800043d8:	00a677b3          	and	a5,a2,a0
800043dc:	02079463          	bnez	a5,80004404 <_malloc_r+0x200>
800043e0:	00161613          	slli	a2,a2,0x1
800043e4:	ffc5f593          	andi	a1,a1,-4
800043e8:	00a677b3          	and	a5,a2,a0
800043ec:	00458593          	addi	a1,a1,4
800043f0:	00079a63          	bnez	a5,80004404 <_malloc_r+0x200>
800043f4:	00161613          	slli	a2,a2,0x1
800043f8:	00a677b3          	and	a5,a2,a0
800043fc:	00458593          	addi	a1,a1,4
80004400:	fe078ae3          	beqz	a5,800043f4 <_malloc_r+0x1f0>
80004404:	00f00813          	li	a6,15
80004408:	00359313          	slli	t1,a1,0x3
8000440c:	00698333          	add	t1,s3,t1
80004410:	00030513          	mv	a0,t1
80004414:	00c52783          	lw	a5,12(a0)
80004418:	00058e13          	mv	t3,a1
8000441c:	1ef50e63          	beq	a0,a5,80004618 <_malloc_r+0x414>
80004420:	0047a703          	lw	a4,4(a5)
80004424:	00078413          	mv	s0,a5
80004428:	00c7a783          	lw	a5,12(a5)
8000442c:	ffc77713          	andi	a4,a4,-4
80004430:	409706b3          	sub	a3,a4,s1
80004434:	1ed84e63          	blt	a6,a3,80004630 <_malloc_r+0x42c>
80004438:	fe06c2e3          	bltz	a3,8000441c <_malloc_r+0x218>
8000443c:	00e40733          	add	a4,s0,a4
80004440:	00472683          	lw	a3,4(a4)
80004444:	00842603          	lw	a2,8(s0)
80004448:	00090513          	mv	a0,s2
8000444c:	0016e693          	ori	a3,a3,1
80004450:	00d72223          	sw	a3,4(a4)
80004454:	00f62623          	sw	a5,12(a2)
80004458:	00c7a423          	sw	a2,8(a5)
8000445c:	0bd000ef          	jal	ra,80004d18 <__malloc_unlock>
80004460:	00840513          	addi	a0,s0,8
80004464:	e45ff06f          	j	800042a8 <_malloc_r+0xa4>
80004468:	00c00793          	li	a5,12
8000446c:	00f92023          	sw	a5,0(s2)
80004470:	00000513          	li	a0,0
80004474:	e35ff06f          	j	800042a8 <_malloc_r+0xa4>
80004478:	20000693          	li	a3,512
8000447c:	04000593          	li	a1,64
80004480:	03f00513          	li	a0,63
80004484:	e91ff06f          	j	80004314 <_malloc_r+0x110>
80004488:	0089a403          	lw	s0,8(s3)
8000448c:	00442783          	lw	a5,4(s0)
80004490:	ffc7fb13          	andi	s6,a5,-4
80004494:	009b6863          	bltu	s6,s1,800044a4 <_malloc_r+0x2a0>
80004498:	409b0733          	sub	a4,s6,s1
8000449c:	00f00793          	li	a5,15
800044a0:	0ae7c863          	blt	a5,a4,80004550 <_malloc_r+0x34c>
800044a4:	04018c93          	addi	s9,gp,64 # 80007e68 <__malloc_sbrk_base>
800044a8:	000ca703          	lw	a4,0(s9)
800044ac:	0501aa83          	lw	s5,80(gp) # 80007e78 <__malloc_top_pad>
800044b0:	fff00793          	li	a5,-1
800044b4:	01640a33          	add	s4,s0,s6
800044b8:	01548ab3          	add	s5,s1,s5
800044bc:	3af70863          	beq	a4,a5,8000486c <_malloc_r+0x668>
800044c0:	000017b7          	lui	a5,0x1
800044c4:	00f78793          	addi	a5,a5,15 # 100f <_reset-0x7fffeff1>
800044c8:	00fa8ab3          	add	s5,s5,a5
800044cc:	fffff7b7          	lui	a5,0xfffff
800044d0:	00fafab3          	and	s5,s5,a5
800044d4:	000a8593          	mv	a1,s5
800044d8:	00090513          	mv	a0,s2
800044dc:	599000ef          	jal	ra,80005274 <_sbrk_r>
800044e0:	fff00793          	li	a5,-1
800044e4:	00050b93          	mv	s7,a0
800044e8:	20f50863          	beq	a0,a5,800046f8 <_malloc_r+0x4f4>
800044ec:	21456463          	bltu	a0,s4,800046f4 <_malloc_r+0x4f0>
800044f0:	07418c13          	addi	s8,gp,116 # 80007e9c <__malloc_current_mallinfo>
800044f4:	000c2583          	lw	a1,0(s8)
800044f8:	00ba85b3          	add	a1,s5,a1
800044fc:	00bc2023          	sw	a1,0(s8)
80004500:	00058713          	mv	a4,a1
80004504:	28aa1a63          	bne	s4,a0,80004798 <_malloc_r+0x594>
80004508:	01451793          	slli	a5,a0,0x14
8000450c:	28079663          	bnez	a5,80004798 <_malloc_r+0x594>
80004510:	0089ab83          	lw	s7,8(s3)
80004514:	015b07b3          	add	a5,s6,s5
80004518:	0017e793          	ori	a5,a5,1
8000451c:	00fba223          	sw	a5,4(s7)
80004520:	04c18713          	addi	a4,gp,76 # 80007e74 <__malloc_max_sbrked_mem>
80004524:	00072683          	lw	a3,0(a4)
80004528:	00b6f463          	bgeu	a3,a1,80004530 <_malloc_r+0x32c>
8000452c:	00b72023          	sw	a1,0(a4)
80004530:	04818713          	addi	a4,gp,72 # 80007e70 <__malloc_max_total_mem>
80004534:	00072683          	lw	a3,0(a4)
80004538:	00b6f463          	bgeu	a3,a1,80004540 <_malloc_r+0x33c>
8000453c:	00b72023          	sw	a1,0(a4)
80004540:	000b8413          	mv	s0,s7
80004544:	1bc0006f          	j	80004700 <_malloc_r+0x4fc>
80004548:	0049a503          	lw	a0,4(s3)
8000454c:	e7dff06f          	j	800043c8 <_malloc_r+0x1c4>
80004550:	0014e793          	ori	a5,s1,1
80004554:	00f42223          	sw	a5,4(s0)
80004558:	009404b3          	add	s1,s0,s1
8000455c:	0099a423          	sw	s1,8(s3)
80004560:	00176713          	ori	a4,a4,1
80004564:	00090513          	mv	a0,s2
80004568:	00e4a223          	sw	a4,4(s1)
8000456c:	7ac000ef          	jal	ra,80004d18 <__malloc_unlock>
80004570:	00840513          	addi	a0,s0,8
80004574:	d35ff06f          	j	800042a8 <_malloc_r+0xa4>
80004578:	00c42683          	lw	a3,12(s0)
8000457c:	00842603          	lw	a2,8(s0)
80004580:	d05ff06f          	j	80004284 <_malloc_r+0x80>
80004584:	00c7a403          	lw	s0,12(a5) # fffff00c <__BSS_END__+0x7fff7148>
80004588:	00258593          	addi	a1,a1,2
8000458c:	dc8784e3          	beq	a5,s0,80004354 <_malloc_r+0x150>
80004590:	ce5ff06f          	j	80004274 <_malloc_r+0x70>
80004594:	0097d713          	srli	a4,a5,0x9
80004598:	00400693          	li	a3,4
8000459c:	14e6f263          	bgeu	a3,a4,800046e0 <_malloc_r+0x4dc>
800045a0:	01400693          	li	a3,20
800045a4:	30e6ea63          	bltu	a3,a4,800048b8 <_malloc_r+0x6b4>
800045a8:	05c70613          	addi	a2,a4,92
800045ac:	05b70693          	addi	a3,a4,91
800045b0:	00361613          	slli	a2,a2,0x3
800045b4:	00c98633          	add	a2,s3,a2
800045b8:	00062703          	lw	a4,0(a2)
800045bc:	ff860613          	addi	a2,a2,-8
800045c0:	00e61863          	bne	a2,a4,800045d0 <_malloc_r+0x3cc>
800045c4:	2b00006f          	j	80004874 <_malloc_r+0x670>
800045c8:	00872703          	lw	a4,8(a4)
800045cc:	00e60863          	beq	a2,a4,800045dc <_malloc_r+0x3d8>
800045d0:	00472683          	lw	a3,4(a4)
800045d4:	ffc6f693          	andi	a3,a3,-4
800045d8:	fed7e8e3          	bltu	a5,a3,800045c8 <_malloc_r+0x3c4>
800045dc:	00c72603          	lw	a2,12(a4)
800045e0:	00c42623          	sw	a2,12(s0)
800045e4:	00e42423          	sw	a4,8(s0)
800045e8:	00862423          	sw	s0,8(a2)
800045ec:	00872623          	sw	s0,12(a4)
800045f0:	dd9ff06f          	j	800043c8 <_malloc_r+0x1c4>
800045f4:	01400713          	li	a4,20
800045f8:	12f77663          	bgeu	a4,a5,80004724 <_malloc_r+0x520>
800045fc:	05400713          	li	a4,84
80004600:	2cf76a63          	bltu	a4,a5,800048d4 <_malloc_r+0x6d0>
80004604:	00c4d793          	srli	a5,s1,0xc
80004608:	06f78593          	addi	a1,a5,111
8000460c:	06e78513          	addi	a0,a5,110
80004610:	00359693          	slli	a3,a1,0x3
80004614:	d01ff06f          	j	80004314 <_malloc_r+0x110>
80004618:	001e0e13          	addi	t3,t3,1
8000461c:	003e7793          	andi	a5,t3,3
80004620:	00850513          	addi	a0,a0,8
80004624:	10078e63          	beqz	a5,80004740 <_malloc_r+0x53c>
80004628:	00c52783          	lw	a5,12(a0)
8000462c:	df1ff06f          	j	8000441c <_malloc_r+0x218>
80004630:	00842603          	lw	a2,8(s0)
80004634:	0014e593          	ori	a1,s1,1
80004638:	00b42223          	sw	a1,4(s0)
8000463c:	00f62623          	sw	a5,12(a2)
80004640:	00c7a423          	sw	a2,8(a5)
80004644:	009404b3          	add	s1,s0,s1
80004648:	0099aa23          	sw	s1,20(s3)
8000464c:	0099a823          	sw	s1,16(s3)
80004650:	0016e793          	ori	a5,a3,1
80004654:	0114a623          	sw	a7,12(s1)
80004658:	0114a423          	sw	a7,8(s1)
8000465c:	00f4a223          	sw	a5,4(s1)
80004660:	00e40733          	add	a4,s0,a4
80004664:	00090513          	mv	a0,s2
80004668:	00d72023          	sw	a3,0(a4)
8000466c:	6ac000ef          	jal	ra,80004d18 <__malloc_unlock>
80004670:	00840513          	addi	a0,s0,8
80004674:	c35ff06f          	j	800042a8 <_malloc_r+0xa4>
80004678:	00f407b3          	add	a5,s0,a5
8000467c:	0047a703          	lw	a4,4(a5)
80004680:	00090513          	mv	a0,s2
80004684:	00176713          	ori	a4,a4,1
80004688:	00e7a223          	sw	a4,4(a5)
8000468c:	68c000ef          	jal	ra,80004d18 <__malloc_unlock>
80004690:	00840513          	addi	a0,s0,8
80004694:	c15ff06f          	j	800042a8 <_malloc_r+0xa4>
80004698:	0034d593          	srli	a1,s1,0x3
8000469c:	00848793          	addi	a5,s1,8
800046a0:	bbdff06f          	j	8000425c <_malloc_r+0x58>
800046a4:	0014e693          	ori	a3,s1,1
800046a8:	00d42223          	sw	a3,4(s0)
800046ac:	009404b3          	add	s1,s0,s1
800046b0:	0099aa23          	sw	s1,20(s3)
800046b4:	0099a823          	sw	s1,16(s3)
800046b8:	00176693          	ori	a3,a4,1
800046bc:	0114a623          	sw	a7,12(s1)
800046c0:	0114a423          	sw	a7,8(s1)
800046c4:	00d4a223          	sw	a3,4(s1)
800046c8:	00f407b3          	add	a5,s0,a5
800046cc:	00090513          	mv	a0,s2
800046d0:	00e7a023          	sw	a4,0(a5)
800046d4:	644000ef          	jal	ra,80004d18 <__malloc_unlock>
800046d8:	00840513          	addi	a0,s0,8
800046dc:	bcdff06f          	j	800042a8 <_malloc_r+0xa4>
800046e0:	0067d713          	srli	a4,a5,0x6
800046e4:	03970613          	addi	a2,a4,57
800046e8:	03870693          	addi	a3,a4,56
800046ec:	00361613          	slli	a2,a2,0x3
800046f0:	ec5ff06f          	j	800045b4 <_malloc_r+0x3b0>
800046f4:	09340a63          	beq	s0,s3,80004788 <_malloc_r+0x584>
800046f8:	0089a403          	lw	s0,8(s3)
800046fc:	00442783          	lw	a5,4(s0)
80004700:	ffc7f793          	andi	a5,a5,-4
80004704:	40978733          	sub	a4,a5,s1
80004708:	0097e663          	bltu	a5,s1,80004714 <_malloc_r+0x510>
8000470c:	00f00793          	li	a5,15
80004710:	e4e7c0e3          	blt	a5,a4,80004550 <_malloc_r+0x34c>
80004714:	00090513          	mv	a0,s2
80004718:	600000ef          	jal	ra,80004d18 <__malloc_unlock>
8000471c:	00000513          	li	a0,0
80004720:	b89ff06f          	j	800042a8 <_malloc_r+0xa4>
80004724:	05c78593          	addi	a1,a5,92
80004728:	05b78513          	addi	a0,a5,91
8000472c:	00359693          	slli	a3,a1,0x3
80004730:	be5ff06f          	j	80004314 <_malloc_r+0x110>
80004734:	00832783          	lw	a5,8(t1)
80004738:	fff58593          	addi	a1,a1,-1
8000473c:	24679663          	bne	a5,t1,80004988 <_malloc_r+0x784>
80004740:	0035f793          	andi	a5,a1,3
80004744:	ff830313          	addi	t1,t1,-8
80004748:	fe0796e3          	bnez	a5,80004734 <_malloc_r+0x530>
8000474c:	0049a703          	lw	a4,4(s3)
80004750:	fff64793          	not	a5,a2
80004754:	00e7f7b3          	and	a5,a5,a4
80004758:	00f9a223          	sw	a5,4(s3)
8000475c:	00161613          	slli	a2,a2,0x1
80004760:	d2c7e4e3          	bltu	a5,a2,80004488 <_malloc_r+0x284>
80004764:	d20602e3          	beqz	a2,80004488 <_malloc_r+0x284>
80004768:	00f67733          	and	a4,a2,a5
8000476c:	00071a63          	bnez	a4,80004780 <_malloc_r+0x57c>
80004770:	00161613          	slli	a2,a2,0x1
80004774:	00f67733          	and	a4,a2,a5
80004778:	004e0e13          	addi	t3,t3,4
8000477c:	fe070ae3          	beqz	a4,80004770 <_malloc_r+0x56c>
80004780:	000e0593          	mv	a1,t3
80004784:	c85ff06f          	j	80004408 <_malloc_r+0x204>
80004788:	07418c13          	addi	s8,gp,116 # 80007e9c <__malloc_current_mallinfo>
8000478c:	000c2703          	lw	a4,0(s8)
80004790:	00ea8733          	add	a4,s5,a4
80004794:	00ec2023          	sw	a4,0(s8)
80004798:	000ca683          	lw	a3,0(s9)
8000479c:	fff00793          	li	a5,-1
800047a0:	14f68863          	beq	a3,a5,800048f0 <_malloc_r+0x6ec>
800047a4:	414b87b3          	sub	a5,s7,s4
800047a8:	00e787b3          	add	a5,a5,a4
800047ac:	00fc2023          	sw	a5,0(s8)
800047b0:	007bfc93          	andi	s9,s7,7
800047b4:	0c0c8c63          	beqz	s9,8000488c <_malloc_r+0x688>
800047b8:	00001737          	lui	a4,0x1
800047bc:	419b8bb3          	sub	s7,s7,s9
800047c0:	00870593          	addi	a1,a4,8 # 1008 <_reset-0x7fffeff8>
800047c4:	008b8b93          	addi	s7,s7,8
800047c8:	419585b3          	sub	a1,a1,s9
800047cc:	015b8ab3          	add	s5,s7,s5
800047d0:	415585b3          	sub	a1,a1,s5
800047d4:	fff70713          	addi	a4,a4,-1
800047d8:	00e5fa33          	and	s4,a1,a4
800047dc:	000a0593          	mv	a1,s4
800047e0:	00090513          	mv	a0,s2
800047e4:	291000ef          	jal	ra,80005274 <_sbrk_r>
800047e8:	fff00793          	li	a5,-1
800047ec:	14f50863          	beq	a0,a5,8000493c <_malloc_r+0x738>
800047f0:	41750533          	sub	a0,a0,s7
800047f4:	01450ab3          	add	s5,a0,s4
800047f8:	000c2703          	lw	a4,0(s8)
800047fc:	0179a423          	sw	s7,8(s3)
80004800:	001ae793          	ori	a5,s5,1
80004804:	00ea05b3          	add	a1,s4,a4
80004808:	00bc2023          	sw	a1,0(s8)
8000480c:	00fba223          	sw	a5,4(s7)
80004810:	d13408e3          	beq	s0,s3,80004520 <_malloc_r+0x31c>
80004814:	00f00693          	li	a3,15
80004818:	0f66f063          	bgeu	a3,s6,800048f8 <_malloc_r+0x6f4>
8000481c:	00442703          	lw	a4,4(s0)
80004820:	ff4b0793          	addi	a5,s6,-12
80004824:	ff87f793          	andi	a5,a5,-8
80004828:	00177713          	andi	a4,a4,1
8000482c:	00f76733          	or	a4,a4,a5
80004830:	00e42223          	sw	a4,4(s0)
80004834:	00500613          	li	a2,5
80004838:	00f40733          	add	a4,s0,a5
8000483c:	00c72223          	sw	a2,4(a4)
80004840:	00c72423          	sw	a2,8(a4)
80004844:	00f6e663          	bltu	a3,a5,80004850 <_malloc_r+0x64c>
80004848:	004ba783          	lw	a5,4(s7)
8000484c:	cd5ff06f          	j	80004520 <_malloc_r+0x31c>
80004850:	00840593          	addi	a1,s0,8
80004854:	00090513          	mv	a0,s2
80004858:	350010ef          	jal	ra,80005ba8 <_free_r>
8000485c:	0089ab83          	lw	s7,8(s3)
80004860:	000c2583          	lw	a1,0(s8)
80004864:	004ba783          	lw	a5,4(s7)
80004868:	cb9ff06f          	j	80004520 <_malloc_r+0x31c>
8000486c:	010a8a93          	addi	s5,s5,16
80004870:	c65ff06f          	j	800044d4 <_malloc_r+0x2d0>
80004874:	4026d693          	srai	a3,a3,0x2
80004878:	00100793          	li	a5,1
8000487c:	00d797b3          	sll	a5,a5,a3
80004880:	00f56533          	or	a0,a0,a5
80004884:	00a9a223          	sw	a0,4(s3)
80004888:	d59ff06f          	j	800045e0 <_malloc_r+0x3dc>
8000488c:	015b85b3          	add	a1,s7,s5
80004890:	40b005b3          	neg	a1,a1
80004894:	01459593          	slli	a1,a1,0x14
80004898:	0145da13          	srli	s4,a1,0x14
8000489c:	000a0593          	mv	a1,s4
800048a0:	00090513          	mv	a0,s2
800048a4:	1d1000ef          	jal	ra,80005274 <_sbrk_r>
800048a8:	fff00793          	li	a5,-1
800048ac:	f4f512e3          	bne	a0,a5,800047f0 <_malloc_r+0x5ec>
800048b0:	00000a13          	li	s4,0
800048b4:	f45ff06f          	j	800047f8 <_malloc_r+0x5f4>
800048b8:	05400693          	li	a3,84
800048bc:	04e6e463          	bltu	a3,a4,80004904 <_malloc_r+0x700>
800048c0:	00c7d713          	srli	a4,a5,0xc
800048c4:	06f70613          	addi	a2,a4,111
800048c8:	06e70693          	addi	a3,a4,110
800048cc:	00361613          	slli	a2,a2,0x3
800048d0:	ce5ff06f          	j	800045b4 <_malloc_r+0x3b0>
800048d4:	15400713          	li	a4,340
800048d8:	04f76463          	bltu	a4,a5,80004920 <_malloc_r+0x71c>
800048dc:	00f4d793          	srli	a5,s1,0xf
800048e0:	07878593          	addi	a1,a5,120
800048e4:	07778513          	addi	a0,a5,119
800048e8:	00359693          	slli	a3,a1,0x3
800048ec:	a29ff06f          	j	80004314 <_malloc_r+0x110>
800048f0:	017ca023          	sw	s7,0(s9)
800048f4:	ebdff06f          	j	800047b0 <_malloc_r+0x5ac>
800048f8:	00100793          	li	a5,1
800048fc:	00fba223          	sw	a5,4(s7)
80004900:	e15ff06f          	j	80004714 <_malloc_r+0x510>
80004904:	15400693          	li	a3,340
80004908:	04e6e463          	bltu	a3,a4,80004950 <_malloc_r+0x74c>
8000490c:	00f7d713          	srli	a4,a5,0xf
80004910:	07870613          	addi	a2,a4,120
80004914:	07770693          	addi	a3,a4,119
80004918:	00361613          	slli	a2,a2,0x3
8000491c:	c99ff06f          	j	800045b4 <_malloc_r+0x3b0>
80004920:	55400713          	li	a4,1364
80004924:	04f76463          	bltu	a4,a5,8000496c <_malloc_r+0x768>
80004928:	0124d793          	srli	a5,s1,0x12
8000492c:	07d78593          	addi	a1,a5,125
80004930:	07c78513          	addi	a0,a5,124
80004934:	00359693          	slli	a3,a1,0x3
80004938:	9ddff06f          	j	80004314 <_malloc_r+0x110>
8000493c:	ff8c8c93          	addi	s9,s9,-8
80004940:	019a8ab3          	add	s5,s5,s9
80004944:	417a8ab3          	sub	s5,s5,s7
80004948:	00000a13          	li	s4,0
8000494c:	eadff06f          	j	800047f8 <_malloc_r+0x5f4>
80004950:	55400693          	li	a3,1364
80004954:	02e6e463          	bltu	a3,a4,8000497c <_malloc_r+0x778>
80004958:	0127d713          	srli	a4,a5,0x12
8000495c:	07d70613          	addi	a2,a4,125
80004960:	07c70693          	addi	a3,a4,124
80004964:	00361613          	slli	a2,a2,0x3
80004968:	c4dff06f          	j	800045b4 <_malloc_r+0x3b0>
8000496c:	3f800693          	li	a3,1016
80004970:	07f00593          	li	a1,127
80004974:	07e00513          	li	a0,126
80004978:	99dff06f          	j	80004314 <_malloc_r+0x110>
8000497c:	3f800613          	li	a2,1016
80004980:	07e00693          	li	a3,126
80004984:	c31ff06f          	j	800045b4 <_malloc_r+0x3b0>
80004988:	0049a783          	lw	a5,4(s3)
8000498c:	dd1ff06f          	j	8000475c <_malloc_r+0x558>

80004990 <memchr>:
80004990:	00357793          	andi	a5,a0,3
80004994:	0ff5f693          	zext.b	a3,a1
80004998:	02078e63          	beqz	a5,800049d4 <memchr+0x44>
8000499c:	fff60793          	addi	a5,a2,-1
800049a0:	02060663          	beqz	a2,800049cc <memchr+0x3c>
800049a4:	fff00613          	li	a2,-1
800049a8:	0180006f          	j	800049c0 <memchr+0x30>
800049ac:	00150513          	addi	a0,a0,1
800049b0:	00357713          	andi	a4,a0,3
800049b4:	02070263          	beqz	a4,800049d8 <memchr+0x48>
800049b8:	fff78793          	addi	a5,a5,-1
800049bc:	00c78863          	beq	a5,a2,800049cc <memchr+0x3c>
800049c0:	00054703          	lbu	a4,0(a0)
800049c4:	fed714e3          	bne	a4,a3,800049ac <memchr+0x1c>
800049c8:	00008067          	ret
800049cc:	00000513          	li	a0,0
800049d0:	00008067          	ret
800049d4:	00060793          	mv	a5,a2
800049d8:	00300713          	li	a4,3
800049dc:	04f77c63          	bgeu	a4,a5,80004a34 <memchr+0xa4>
800049e0:	0ff5f593          	zext.b	a1,a1
800049e4:	00859713          	slli	a4,a1,0x8
800049e8:	00b705b3          	add	a1,a4,a1
800049ec:	01059713          	slli	a4,a1,0x10
800049f0:	feff08b7          	lui	a7,0xfeff0
800049f4:	80808837          	lui	a6,0x80808
800049f8:	00e585b3          	add	a1,a1,a4
800049fc:	eff88893          	addi	a7,a7,-257 # fefefeff <__BSS_END__+0x7efe803b>
80004a00:	08080813          	addi	a6,a6,128 # 80808080 <__BSS_END__+0x8001bc>
80004a04:	00300313          	li	t1,3
80004a08:	0100006f          	j	80004a18 <memchr+0x88>
80004a0c:	ffc78793          	addi	a5,a5,-4
80004a10:	00450513          	addi	a0,a0,4
80004a14:	02f37063          	bgeu	t1,a5,80004a34 <memchr+0xa4>
80004a18:	00052703          	lw	a4,0(a0)
80004a1c:	00e5c733          	xor	a4,a1,a4
80004a20:	01170633          	add	a2,a4,a7
80004a24:	fff74713          	not	a4,a4
80004a28:	00e67733          	and	a4,a2,a4
80004a2c:	01077733          	and	a4,a4,a6
80004a30:	fc070ee3          	beqz	a4,80004a0c <memchr+0x7c>
80004a34:	00f50733          	add	a4,a0,a5
80004a38:	00079863          	bnez	a5,80004a48 <memchr+0xb8>
80004a3c:	f91ff06f          	j	800049cc <memchr+0x3c>
80004a40:	00150513          	addi	a0,a0,1
80004a44:	f8a704e3          	beq	a4,a0,800049cc <memchr+0x3c>
80004a48:	00054783          	lbu	a5,0(a0)
80004a4c:	fed79ae3          	bne	a5,a3,80004a40 <memchr+0xb0>
80004a50:	00008067          	ret

80004a54 <memcpy>:
80004a54:	00b547b3          	xor	a5,a0,a1
80004a58:	0037f793          	andi	a5,a5,3
80004a5c:	00c508b3          	add	a7,a0,a2
80004a60:	06079463          	bnez	a5,80004ac8 <memcpy+0x74>
80004a64:	00300793          	li	a5,3
80004a68:	06c7f063          	bgeu	a5,a2,80004ac8 <memcpy+0x74>
80004a6c:	00357793          	andi	a5,a0,3
80004a70:	00050713          	mv	a4,a0
80004a74:	06079a63          	bnez	a5,80004ae8 <memcpy+0x94>
80004a78:	ffc8f613          	andi	a2,a7,-4
80004a7c:	40e606b3          	sub	a3,a2,a4
80004a80:	02000793          	li	a5,32
80004a84:	08d7ce63          	blt	a5,a3,80004b20 <memcpy+0xcc>
80004a88:	00058693          	mv	a3,a1
80004a8c:	00070793          	mv	a5,a4
80004a90:	02c77863          	bgeu	a4,a2,80004ac0 <memcpy+0x6c>
80004a94:	0006a803          	lw	a6,0(a3)
80004a98:	00478793          	addi	a5,a5,4
80004a9c:	00468693          	addi	a3,a3,4
80004aa0:	ff07ae23          	sw	a6,-4(a5)
80004aa4:	fec7e8e3          	bltu	a5,a2,80004a94 <memcpy+0x40>
80004aa8:	fff60793          	addi	a5,a2,-1
80004aac:	40e787b3          	sub	a5,a5,a4
80004ab0:	ffc7f793          	andi	a5,a5,-4
80004ab4:	00478793          	addi	a5,a5,4
80004ab8:	00f70733          	add	a4,a4,a5
80004abc:	00f585b3          	add	a1,a1,a5
80004ac0:	01176863          	bltu	a4,a7,80004ad0 <memcpy+0x7c>
80004ac4:	00008067          	ret
80004ac8:	00050713          	mv	a4,a0
80004acc:	05157863          	bgeu	a0,a7,80004b1c <memcpy+0xc8>
80004ad0:	0005c783          	lbu	a5,0(a1)
80004ad4:	00170713          	addi	a4,a4,1
80004ad8:	00158593          	addi	a1,a1,1
80004adc:	fef70fa3          	sb	a5,-1(a4)
80004ae0:	fee898e3          	bne	a7,a4,80004ad0 <memcpy+0x7c>
80004ae4:	00008067          	ret
80004ae8:	0005c683          	lbu	a3,0(a1)
80004aec:	00170713          	addi	a4,a4,1
80004af0:	00377793          	andi	a5,a4,3
80004af4:	fed70fa3          	sb	a3,-1(a4)
80004af8:	00158593          	addi	a1,a1,1
80004afc:	f6078ee3          	beqz	a5,80004a78 <memcpy+0x24>
80004b00:	0005c683          	lbu	a3,0(a1)
80004b04:	00170713          	addi	a4,a4,1
80004b08:	00377793          	andi	a5,a4,3
80004b0c:	fed70fa3          	sb	a3,-1(a4)
80004b10:	00158593          	addi	a1,a1,1
80004b14:	fc079ae3          	bnez	a5,80004ae8 <memcpy+0x94>
80004b18:	f61ff06f          	j	80004a78 <memcpy+0x24>
80004b1c:	00008067          	ret
80004b20:	ff010113          	addi	sp,sp,-16
80004b24:	00812623          	sw	s0,12(sp)
80004b28:	02000413          	li	s0,32
80004b2c:	0005a383          	lw	t2,0(a1)
80004b30:	0045a283          	lw	t0,4(a1)
80004b34:	0085af83          	lw	t6,8(a1)
80004b38:	00c5af03          	lw	t5,12(a1)
80004b3c:	0105ae83          	lw	t4,16(a1)
80004b40:	0145ae03          	lw	t3,20(a1)
80004b44:	0185a303          	lw	t1,24(a1)
80004b48:	01c5a803          	lw	a6,28(a1)
80004b4c:	0205a683          	lw	a3,32(a1)
80004b50:	02470713          	addi	a4,a4,36
80004b54:	40e607b3          	sub	a5,a2,a4
80004b58:	fc772e23          	sw	t2,-36(a4)
80004b5c:	fe572023          	sw	t0,-32(a4)
80004b60:	fff72223          	sw	t6,-28(a4)
80004b64:	ffe72423          	sw	t5,-24(a4)
80004b68:	ffd72623          	sw	t4,-20(a4)
80004b6c:	ffc72823          	sw	t3,-16(a4)
80004b70:	fe672a23          	sw	t1,-12(a4)
80004b74:	ff072c23          	sw	a6,-8(a4)
80004b78:	fed72e23          	sw	a3,-4(a4)
80004b7c:	02458593          	addi	a1,a1,36
80004b80:	faf446e3          	blt	s0,a5,80004b2c <memcpy+0xd8>
80004b84:	00058693          	mv	a3,a1
80004b88:	00070793          	mv	a5,a4
80004b8c:	02c77863          	bgeu	a4,a2,80004bbc <memcpy+0x168>
80004b90:	0006a803          	lw	a6,0(a3)
80004b94:	00478793          	addi	a5,a5,4
80004b98:	00468693          	addi	a3,a3,4
80004b9c:	ff07ae23          	sw	a6,-4(a5)
80004ba0:	fec7e8e3          	bltu	a5,a2,80004b90 <memcpy+0x13c>
80004ba4:	fff60793          	addi	a5,a2,-1
80004ba8:	40e787b3          	sub	a5,a5,a4
80004bac:	ffc7f793          	andi	a5,a5,-4
80004bb0:	00478793          	addi	a5,a5,4
80004bb4:	00f70733          	add	a4,a4,a5
80004bb8:	00f585b3          	add	a1,a1,a5
80004bbc:	01176863          	bltu	a4,a7,80004bcc <memcpy+0x178>
80004bc0:	00c12403          	lw	s0,12(sp)
80004bc4:	01010113          	addi	sp,sp,16
80004bc8:	00008067          	ret
80004bcc:	0005c783          	lbu	a5,0(a1)
80004bd0:	00170713          	addi	a4,a4,1
80004bd4:	00158593          	addi	a1,a1,1
80004bd8:	fef70fa3          	sb	a5,-1(a4)
80004bdc:	fee882e3          	beq	a7,a4,80004bc0 <memcpy+0x16c>
80004be0:	0005c783          	lbu	a5,0(a1)
80004be4:	00170713          	addi	a4,a4,1
80004be8:	00158593          	addi	a1,a1,1
80004bec:	fef70fa3          	sb	a5,-1(a4)
80004bf0:	fce89ee3          	bne	a7,a4,80004bcc <memcpy+0x178>
80004bf4:	fcdff06f          	j	80004bc0 <memcpy+0x16c>

80004bf8 <memmove>:
80004bf8:	02a5f663          	bgeu	a1,a0,80004c24 <memmove+0x2c>
80004bfc:	00c58733          	add	a4,a1,a2
80004c00:	02e57263          	bgeu	a0,a4,80004c24 <memmove+0x2c>
80004c04:	00c507b3          	add	a5,a0,a2
80004c08:	04060663          	beqz	a2,80004c54 <memmove+0x5c>
80004c0c:	fff74683          	lbu	a3,-1(a4)
80004c10:	fff78793          	addi	a5,a5,-1
80004c14:	fff70713          	addi	a4,a4,-1
80004c18:	00d78023          	sb	a3,0(a5)
80004c1c:	fef518e3          	bne	a0,a5,80004c0c <memmove+0x14>
80004c20:	00008067          	ret
80004c24:	00f00793          	li	a5,15
80004c28:	02c7e863          	bltu	a5,a2,80004c58 <memmove+0x60>
80004c2c:	00050793          	mv	a5,a0
80004c30:	fff60693          	addi	a3,a2,-1
80004c34:	0c060a63          	beqz	a2,80004d08 <memmove+0x110>
80004c38:	00168693          	addi	a3,a3,1
80004c3c:	00d786b3          	add	a3,a5,a3
80004c40:	0005c703          	lbu	a4,0(a1)
80004c44:	00178793          	addi	a5,a5,1
80004c48:	00158593          	addi	a1,a1,1
80004c4c:	fee78fa3          	sb	a4,-1(a5)
80004c50:	fed798e3          	bne	a5,a3,80004c40 <memmove+0x48>
80004c54:	00008067          	ret
80004c58:	00b567b3          	or	a5,a0,a1
80004c5c:	0037f793          	andi	a5,a5,3
80004c60:	08079e63          	bnez	a5,80004cfc <memmove+0x104>
80004c64:	ff060893          	addi	a7,a2,-16
80004c68:	ff08f893          	andi	a7,a7,-16
80004c6c:	01088893          	addi	a7,a7,16
80004c70:	011507b3          	add	a5,a0,a7
80004c74:	00058693          	mv	a3,a1
80004c78:	00050713          	mv	a4,a0
80004c7c:	0006a803          	lw	a6,0(a3)
80004c80:	01068693          	addi	a3,a3,16
80004c84:	01070713          	addi	a4,a4,16
80004c88:	ff072823          	sw	a6,-16(a4)
80004c8c:	ff46a803          	lw	a6,-12(a3)
80004c90:	ff072a23          	sw	a6,-12(a4)
80004c94:	ff86a803          	lw	a6,-8(a3)
80004c98:	ff072c23          	sw	a6,-8(a4)
80004c9c:	ffc6a803          	lw	a6,-4(a3)
80004ca0:	ff072e23          	sw	a6,-4(a4)
80004ca4:	fcf71ce3          	bne	a4,a5,80004c7c <memmove+0x84>
80004ca8:	00c67713          	andi	a4,a2,12
80004cac:	011585b3          	add	a1,a1,a7
80004cb0:	00f67813          	andi	a6,a2,15
80004cb4:	04070c63          	beqz	a4,80004d0c <memmove+0x114>
80004cb8:	00058693          	mv	a3,a1
80004cbc:	00078713          	mv	a4,a5
80004cc0:	01078eb3          	add	t4,a5,a6
80004cc4:	00300e13          	li	t3,3
80004cc8:	0006a303          	lw	t1,0(a3)
80004ccc:	00470713          	addi	a4,a4,4
80004cd0:	40ee88b3          	sub	a7,t4,a4
80004cd4:	fe672e23          	sw	t1,-4(a4)
80004cd8:	00468693          	addi	a3,a3,4
80004cdc:	ff1e66e3          	bltu	t3,a7,80004cc8 <memmove+0xd0>
80004ce0:	ffc80713          	addi	a4,a6,-4
80004ce4:	ffc77713          	andi	a4,a4,-4
80004ce8:	00470713          	addi	a4,a4,4
80004cec:	00367613          	andi	a2,a2,3
80004cf0:	00e787b3          	add	a5,a5,a4
80004cf4:	00e585b3          	add	a1,a1,a4
80004cf8:	f39ff06f          	j	80004c30 <memmove+0x38>
80004cfc:	fff60693          	addi	a3,a2,-1
80004d00:	00050793          	mv	a5,a0
80004d04:	f35ff06f          	j	80004c38 <memmove+0x40>
80004d08:	00008067          	ret
80004d0c:	00080613          	mv	a2,a6
80004d10:	f21ff06f          	j	80004c30 <memmove+0x38>

80004d14 <__malloc_lock>:
80004d14:	00008067          	ret

80004d18 <__malloc_unlock>:
80004d18:	00008067          	ret

80004d1c <_realloc_r>:
80004d1c:	fd010113          	addi	sp,sp,-48
80004d20:	02912223          	sw	s1,36(sp)
80004d24:	02112623          	sw	ra,44(sp)
80004d28:	02812423          	sw	s0,40(sp)
80004d2c:	03212023          	sw	s2,32(sp)
80004d30:	01312e23          	sw	s3,28(sp)
80004d34:	01412c23          	sw	s4,24(sp)
80004d38:	01512a23          	sw	s5,20(sp)
80004d3c:	01612823          	sw	s6,16(sp)
80004d40:	01712623          	sw	s7,12(sp)
80004d44:	01812423          	sw	s8,8(sp)
80004d48:	00060493          	mv	s1,a2
80004d4c:	1c058263          	beqz	a1,80004f10 <_realloc_r+0x1f4>
80004d50:	00058413          	mv	s0,a1
80004d54:	00050913          	mv	s2,a0
80004d58:	fbdff0ef          	jal	ra,80004d14 <__malloc_lock>
80004d5c:	ffc42703          	lw	a4,-4(s0)
80004d60:	00b48793          	addi	a5,s1,11
80004d64:	01600693          	li	a3,22
80004d68:	ff840a93          	addi	s5,s0,-8
80004d6c:	ffc77993          	andi	s3,a4,-4
80004d70:	0ef6f663          	bgeu	a3,a5,80004e5c <_realloc_r+0x140>
80004d74:	ff87fa13          	andi	s4,a5,-8
80004d78:	0e07c663          	bltz	a5,80004e64 <_realloc_r+0x148>
80004d7c:	0e9a6463          	bltu	s4,s1,80004e64 <_realloc_r+0x148>
80004d80:	1149d463          	bge	s3,s4,80004e88 <_realloc_r+0x16c>
80004d84:	00003c17          	auipc	s8,0x3
80004d88:	cccc0c13          	addi	s8,s8,-820 # 80007a50 <__malloc_av_>
80004d8c:	008c2603          	lw	a2,8(s8)
80004d90:	013a86b3          	add	a3,s5,s3
80004d94:	0046a783          	lw	a5,4(a3)
80004d98:	1cd60e63          	beq	a2,a3,80004f74 <_realloc_r+0x258>
80004d9c:	ffe7f613          	andi	a2,a5,-2
80004da0:	00c68633          	add	a2,a3,a2
80004da4:	00462603          	lw	a2,4(a2)
80004da8:	00167613          	andi	a2,a2,1
80004dac:	14061463          	bnez	a2,80004ef4 <_realloc_r+0x1d8>
80004db0:	ffc7f793          	andi	a5,a5,-4
80004db4:	00f98633          	add	a2,s3,a5
80004db8:	0b465e63          	bge	a2,s4,80004e74 <_realloc_r+0x158>
80004dbc:	00177713          	andi	a4,a4,1
80004dc0:	02071463          	bnez	a4,80004de8 <_realloc_r+0xcc>
80004dc4:	ff842b83          	lw	s7,-8(s0)
80004dc8:	417a8bb3          	sub	s7,s5,s7
80004dcc:	004ba703          	lw	a4,4(s7)
80004dd0:	ffc77713          	andi	a4,a4,-4
80004dd4:	00e787b3          	add	a5,a5,a4
80004dd8:	01378b33          	add	s6,a5,s3
80004ddc:	334b5463          	bge	s6,s4,80005104 <_realloc_r+0x3e8>
80004de0:	00e98b33          	add	s6,s3,a4
80004de4:	294b5663          	bge	s6,s4,80005070 <_realloc_r+0x354>
80004de8:	00048593          	mv	a1,s1
80004dec:	00090513          	mv	a0,s2
80004df0:	c14ff0ef          	jal	ra,80004204 <_malloc_r>
80004df4:	00050493          	mv	s1,a0
80004df8:	40050263          	beqz	a0,800051fc <_realloc_r+0x4e0>
80004dfc:	ffc42783          	lw	a5,-4(s0)
80004e00:	ff850713          	addi	a4,a0,-8
80004e04:	ffe7f793          	andi	a5,a5,-2
80004e08:	00fa87b3          	add	a5,s5,a5
80004e0c:	24e78a63          	beq	a5,a4,80005060 <_realloc_r+0x344>
80004e10:	ffc98613          	addi	a2,s3,-4
80004e14:	02400793          	li	a5,36
80004e18:	2ec7e063          	bltu	a5,a2,800050f8 <_realloc_r+0x3dc>
80004e1c:	01300713          	li	a4,19
80004e20:	20c76e63          	bltu	a4,a2,8000503c <_realloc_r+0x320>
80004e24:	00050793          	mv	a5,a0
80004e28:	00040713          	mv	a4,s0
80004e2c:	00072683          	lw	a3,0(a4)
80004e30:	00d7a023          	sw	a3,0(a5)
80004e34:	00472683          	lw	a3,4(a4)
80004e38:	00d7a223          	sw	a3,4(a5)
80004e3c:	00872703          	lw	a4,8(a4)
80004e40:	00e7a423          	sw	a4,8(a5)
80004e44:	00090513          	mv	a0,s2
80004e48:	00040593          	mv	a1,s0
80004e4c:	55d000ef          	jal	ra,80005ba8 <_free_r>
80004e50:	00090513          	mv	a0,s2
80004e54:	ec5ff0ef          	jal	ra,80004d18 <__malloc_unlock>
80004e58:	0680006f          	j	80004ec0 <_realloc_r+0x1a4>
80004e5c:	01000a13          	li	s4,16
80004e60:	f29a70e3          	bgeu	s4,s1,80004d80 <_realloc_r+0x64>
80004e64:	00c00793          	li	a5,12
80004e68:	00f92023          	sw	a5,0(s2)
80004e6c:	00000493          	li	s1,0
80004e70:	0500006f          	j	80004ec0 <_realloc_r+0x1a4>
80004e74:	00c6a783          	lw	a5,12(a3)
80004e78:	0086a703          	lw	a4,8(a3)
80004e7c:	00060993          	mv	s3,a2
80004e80:	00f72623          	sw	a5,12(a4)
80004e84:	00e7a423          	sw	a4,8(a5)
80004e88:	004aa783          	lw	a5,4(s5)
80004e8c:	414986b3          	sub	a3,s3,s4
80004e90:	00f00613          	li	a2,15
80004e94:	0017f793          	andi	a5,a5,1
80004e98:	013a8733          	add	a4,s5,s3
80004e9c:	0ad66463          	bltu	a2,a3,80004f44 <_realloc_r+0x228>
80004ea0:	0137e7b3          	or	a5,a5,s3
80004ea4:	00faa223          	sw	a5,4(s5)
80004ea8:	00472783          	lw	a5,4(a4)
80004eac:	0017e793          	ori	a5,a5,1
80004eb0:	00f72223          	sw	a5,4(a4)
80004eb4:	00090513          	mv	a0,s2
80004eb8:	e61ff0ef          	jal	ra,80004d18 <__malloc_unlock>
80004ebc:	00040493          	mv	s1,s0
80004ec0:	02c12083          	lw	ra,44(sp)
80004ec4:	02812403          	lw	s0,40(sp)
80004ec8:	02012903          	lw	s2,32(sp)
80004ecc:	01c12983          	lw	s3,28(sp)
80004ed0:	01812a03          	lw	s4,24(sp)
80004ed4:	01412a83          	lw	s5,20(sp)
80004ed8:	01012b03          	lw	s6,16(sp)
80004edc:	00c12b83          	lw	s7,12(sp)
80004ee0:	00812c03          	lw	s8,8(sp)
80004ee4:	00048513          	mv	a0,s1
80004ee8:	02412483          	lw	s1,36(sp)
80004eec:	03010113          	addi	sp,sp,48
80004ef0:	00008067          	ret
80004ef4:	00177713          	andi	a4,a4,1
80004ef8:	ee0718e3          	bnez	a4,80004de8 <_realloc_r+0xcc>
80004efc:	ff842b83          	lw	s7,-8(s0)
80004f00:	417a8bb3          	sub	s7,s5,s7
80004f04:	004ba703          	lw	a4,4(s7)
80004f08:	ffc77713          	andi	a4,a4,-4
80004f0c:	ed5ff06f          	j	80004de0 <_realloc_r+0xc4>
80004f10:	02812403          	lw	s0,40(sp)
80004f14:	02c12083          	lw	ra,44(sp)
80004f18:	02412483          	lw	s1,36(sp)
80004f1c:	02012903          	lw	s2,32(sp)
80004f20:	01c12983          	lw	s3,28(sp)
80004f24:	01812a03          	lw	s4,24(sp)
80004f28:	01412a83          	lw	s5,20(sp)
80004f2c:	01012b03          	lw	s6,16(sp)
80004f30:	00c12b83          	lw	s7,12(sp)
80004f34:	00812c03          	lw	s8,8(sp)
80004f38:	00060593          	mv	a1,a2
80004f3c:	03010113          	addi	sp,sp,48
80004f40:	ac4ff06f          	j	80004204 <_malloc_r>
80004f44:	0147e7b3          	or	a5,a5,s4
80004f48:	00faa223          	sw	a5,4(s5)
80004f4c:	014a85b3          	add	a1,s5,s4
80004f50:	0016e693          	ori	a3,a3,1
80004f54:	00d5a223          	sw	a3,4(a1)
80004f58:	00472783          	lw	a5,4(a4)
80004f5c:	00858593          	addi	a1,a1,8
80004f60:	00090513          	mv	a0,s2
80004f64:	0017e793          	ori	a5,a5,1
80004f68:	00f72223          	sw	a5,4(a4)
80004f6c:	43d000ef          	jal	ra,80005ba8 <_free_r>
80004f70:	f45ff06f          	j	80004eb4 <_realloc_r+0x198>
80004f74:	ffc7f793          	andi	a5,a5,-4
80004f78:	013786b3          	add	a3,a5,s3
80004f7c:	010a0613          	addi	a2,s4,16
80004f80:	22c6de63          	bge	a3,a2,800051bc <_realloc_r+0x4a0>
80004f84:	00177713          	andi	a4,a4,1
80004f88:	e60710e3          	bnez	a4,80004de8 <_realloc_r+0xcc>
80004f8c:	ff842b83          	lw	s7,-8(s0)
80004f90:	417a8bb3          	sub	s7,s5,s7
80004f94:	004ba703          	lw	a4,4(s7)
80004f98:	ffc77713          	andi	a4,a4,-4
80004f9c:	00e787b3          	add	a5,a5,a4
80004fa0:	01378b33          	add	s6,a5,s3
80004fa4:	e2cb4ee3          	blt	s6,a2,80004de0 <_realloc_r+0xc4>
80004fa8:	00cba783          	lw	a5,12(s7)
80004fac:	008ba703          	lw	a4,8(s7)
80004fb0:	ffc98613          	addi	a2,s3,-4
80004fb4:	02400693          	li	a3,36
80004fb8:	00f72623          	sw	a5,12(a4)
80004fbc:	00e7a423          	sw	a4,8(a5)
80004fc0:	008b8493          	addi	s1,s7,8
80004fc4:	26c6e263          	bltu	a3,a2,80005228 <_realloc_r+0x50c>
80004fc8:	01300713          	li	a4,19
80004fcc:	00048793          	mv	a5,s1
80004fd0:	02c77263          	bgeu	a4,a2,80004ff4 <_realloc_r+0x2d8>
80004fd4:	00042703          	lw	a4,0(s0)
80004fd8:	01b00793          	li	a5,27
80004fdc:	00eba423          	sw	a4,8(s7)
80004fe0:	00442703          	lw	a4,4(s0)
80004fe4:	00eba623          	sw	a4,12(s7)
80004fe8:	24c7e863          	bltu	a5,a2,80005238 <_realloc_r+0x51c>
80004fec:	00840413          	addi	s0,s0,8
80004ff0:	010b8793          	addi	a5,s7,16
80004ff4:	00042703          	lw	a4,0(s0)
80004ff8:	00e7a023          	sw	a4,0(a5)
80004ffc:	00442703          	lw	a4,4(s0)
80005000:	00e7a223          	sw	a4,4(a5)
80005004:	00842703          	lw	a4,8(s0)
80005008:	00e7a423          	sw	a4,8(a5)
8000500c:	014b8733          	add	a4,s7,s4
80005010:	414b07b3          	sub	a5,s6,s4
80005014:	00ec2423          	sw	a4,8(s8)
80005018:	0017e793          	ori	a5,a5,1
8000501c:	00f72223          	sw	a5,4(a4)
80005020:	004ba783          	lw	a5,4(s7)
80005024:	00090513          	mv	a0,s2
80005028:	0017f793          	andi	a5,a5,1
8000502c:	0147e7b3          	or	a5,a5,s4
80005030:	00fba223          	sw	a5,4(s7)
80005034:	ce5ff0ef          	jal	ra,80004d18 <__malloc_unlock>
80005038:	e89ff06f          	j	80004ec0 <_realloc_r+0x1a4>
8000503c:	00042683          	lw	a3,0(s0)
80005040:	01b00713          	li	a4,27
80005044:	00d52023          	sw	a3,0(a0)
80005048:	00442683          	lw	a3,4(s0)
8000504c:	00d52223          	sw	a3,4(a0)
80005050:	14c76663          	bltu	a4,a2,8000519c <_realloc_r+0x480>
80005054:	00840713          	addi	a4,s0,8
80005058:	00850793          	addi	a5,a0,8
8000505c:	dd1ff06f          	j	80004e2c <_realloc_r+0x110>
80005060:	ffc52783          	lw	a5,-4(a0)
80005064:	ffc7f793          	andi	a5,a5,-4
80005068:	00f989b3          	add	s3,s3,a5
8000506c:	e1dff06f          	j	80004e88 <_realloc_r+0x16c>
80005070:	00cba783          	lw	a5,12(s7)
80005074:	008ba703          	lw	a4,8(s7)
80005078:	ffc98613          	addi	a2,s3,-4
8000507c:	02400693          	li	a3,36
80005080:	00f72623          	sw	a5,12(a4)
80005084:	00e7a423          	sw	a4,8(a5)
80005088:	008b8493          	addi	s1,s7,8
8000508c:	10c6e063          	bltu	a3,a2,8000518c <_realloc_r+0x470>
80005090:	01300713          	li	a4,19
80005094:	00048793          	mv	a5,s1
80005098:	02c77c63          	bgeu	a4,a2,800050d0 <_realloc_r+0x3b4>
8000509c:	00042703          	lw	a4,0(s0)
800050a0:	01b00793          	li	a5,27
800050a4:	00eba423          	sw	a4,8(s7)
800050a8:	00442703          	lw	a4,4(s0)
800050ac:	00eba623          	sw	a4,12(s7)
800050b0:	14c7f063          	bgeu	a5,a2,800051f0 <_realloc_r+0x4d4>
800050b4:	00842783          	lw	a5,8(s0)
800050b8:	00fba823          	sw	a5,16(s7)
800050bc:	00c42783          	lw	a5,12(s0)
800050c0:	00fbaa23          	sw	a5,20(s7)
800050c4:	0ad60663          	beq	a2,a3,80005170 <_realloc_r+0x454>
800050c8:	01040413          	addi	s0,s0,16
800050cc:	018b8793          	addi	a5,s7,24
800050d0:	00042703          	lw	a4,0(s0)
800050d4:	00e7a023          	sw	a4,0(a5)
800050d8:	00442703          	lw	a4,4(s0)
800050dc:	00e7a223          	sw	a4,4(a5)
800050e0:	00842703          	lw	a4,8(s0)
800050e4:	00e7a423          	sw	a4,8(a5)
800050e8:	00048413          	mv	s0,s1
800050ec:	000b0993          	mv	s3,s6
800050f0:	000b8a93          	mv	s5,s7
800050f4:	d95ff06f          	j	80004e88 <_realloc_r+0x16c>
800050f8:	00040593          	mv	a1,s0
800050fc:	afdff0ef          	jal	ra,80004bf8 <memmove>
80005100:	d45ff06f          	j	80004e44 <_realloc_r+0x128>
80005104:	00c6a783          	lw	a5,12(a3)
80005108:	0086a703          	lw	a4,8(a3)
8000510c:	ffc98613          	addi	a2,s3,-4
80005110:	02400693          	li	a3,36
80005114:	00f72623          	sw	a5,12(a4)
80005118:	00e7a423          	sw	a4,8(a5)
8000511c:	008ba703          	lw	a4,8(s7)
80005120:	00cba783          	lw	a5,12(s7)
80005124:	008b8493          	addi	s1,s7,8
80005128:	00f72623          	sw	a5,12(a4)
8000512c:	00e7a423          	sw	a4,8(a5)
80005130:	04c6ee63          	bltu	a3,a2,8000518c <_realloc_r+0x470>
80005134:	01300713          	li	a4,19
80005138:	00048793          	mv	a5,s1
8000513c:	f8c77ae3          	bgeu	a4,a2,800050d0 <_realloc_r+0x3b4>
80005140:	00042703          	lw	a4,0(s0)
80005144:	01b00793          	li	a5,27
80005148:	00eba423          	sw	a4,8(s7)
8000514c:	00442703          	lw	a4,4(s0)
80005150:	00eba623          	sw	a4,12(s7)
80005154:	08c7fe63          	bgeu	a5,a2,800051f0 <_realloc_r+0x4d4>
80005158:	00842703          	lw	a4,8(s0)
8000515c:	02400793          	li	a5,36
80005160:	00eba823          	sw	a4,16(s7)
80005164:	00c42703          	lw	a4,12(s0)
80005168:	00ebaa23          	sw	a4,20(s7)
8000516c:	f4f61ee3          	bne	a2,a5,800050c8 <_realloc_r+0x3ac>
80005170:	01042703          	lw	a4,16(s0)
80005174:	020b8793          	addi	a5,s7,32
80005178:	01840413          	addi	s0,s0,24
8000517c:	00ebac23          	sw	a4,24(s7)
80005180:	ffc42703          	lw	a4,-4(s0)
80005184:	00ebae23          	sw	a4,28(s7)
80005188:	f49ff06f          	j	800050d0 <_realloc_r+0x3b4>
8000518c:	00040593          	mv	a1,s0
80005190:	00048513          	mv	a0,s1
80005194:	a65ff0ef          	jal	ra,80004bf8 <memmove>
80005198:	f51ff06f          	j	800050e8 <_realloc_r+0x3cc>
8000519c:	00842703          	lw	a4,8(s0)
800051a0:	00e52423          	sw	a4,8(a0)
800051a4:	00c42703          	lw	a4,12(s0)
800051a8:	00e52623          	sw	a4,12(a0)
800051ac:	06f60063          	beq	a2,a5,8000520c <_realloc_r+0x4f0>
800051b0:	01040713          	addi	a4,s0,16
800051b4:	01050793          	addi	a5,a0,16
800051b8:	c75ff06f          	j	80004e2c <_realloc_r+0x110>
800051bc:	014a8ab3          	add	s5,s5,s4
800051c0:	414687b3          	sub	a5,a3,s4
800051c4:	015c2423          	sw	s5,8(s8)
800051c8:	0017e793          	ori	a5,a5,1
800051cc:	00faa223          	sw	a5,4(s5)
800051d0:	ffc42783          	lw	a5,-4(s0)
800051d4:	00090513          	mv	a0,s2
800051d8:	00040493          	mv	s1,s0
800051dc:	0017f793          	andi	a5,a5,1
800051e0:	0147e7b3          	or	a5,a5,s4
800051e4:	fef42e23          	sw	a5,-4(s0)
800051e8:	b31ff0ef          	jal	ra,80004d18 <__malloc_unlock>
800051ec:	cd5ff06f          	j	80004ec0 <_realloc_r+0x1a4>
800051f0:	00840413          	addi	s0,s0,8
800051f4:	010b8793          	addi	a5,s7,16
800051f8:	ed9ff06f          	j	800050d0 <_realloc_r+0x3b4>
800051fc:	00090513          	mv	a0,s2
80005200:	b19ff0ef          	jal	ra,80004d18 <__malloc_unlock>
80005204:	00000493          	li	s1,0
80005208:	cb9ff06f          	j	80004ec0 <_realloc_r+0x1a4>
8000520c:	01042683          	lw	a3,16(s0)
80005210:	01840713          	addi	a4,s0,24
80005214:	01850793          	addi	a5,a0,24
80005218:	00d52823          	sw	a3,16(a0)
8000521c:	01442683          	lw	a3,20(s0)
80005220:	00d52a23          	sw	a3,20(a0)
80005224:	c09ff06f          	j	80004e2c <_realloc_r+0x110>
80005228:	00040593          	mv	a1,s0
8000522c:	00048513          	mv	a0,s1
80005230:	9c9ff0ef          	jal	ra,80004bf8 <memmove>
80005234:	dd9ff06f          	j	8000500c <_realloc_r+0x2f0>
80005238:	00842783          	lw	a5,8(s0)
8000523c:	00fba823          	sw	a5,16(s7)
80005240:	00c42783          	lw	a5,12(s0)
80005244:	00fbaa23          	sw	a5,20(s7)
80005248:	00d60863          	beq	a2,a3,80005258 <_realloc_r+0x53c>
8000524c:	01040413          	addi	s0,s0,16
80005250:	018b8793          	addi	a5,s7,24
80005254:	da1ff06f          	j	80004ff4 <_realloc_r+0x2d8>
80005258:	01042703          	lw	a4,16(s0)
8000525c:	020b8793          	addi	a5,s7,32
80005260:	01840413          	addi	s0,s0,24
80005264:	00ebac23          	sw	a4,24(s7)
80005268:	ffc42703          	lw	a4,-4(s0)
8000526c:	00ebae23          	sw	a4,28(s7)
80005270:	d85ff06f          	j	80004ff4 <_realloc_r+0x2d8>

80005274 <_sbrk_r>:
80005274:	ff010113          	addi	sp,sp,-16
80005278:	00812423          	sw	s0,8(sp)
8000527c:	00050413          	mv	s0,a0
80005280:	00058513          	mv	a0,a1
80005284:	0401aa23          	sw	zero,84(gp) # 80007e7c <errno>
80005288:	00112623          	sw	ra,12(sp)
8000528c:	9dcfd0ef          	jal	ra,80002468 <_sbrk>
80005290:	fff00793          	li	a5,-1
80005294:	00f50a63          	beq	a0,a5,800052a8 <_sbrk_r+0x34>
80005298:	00c12083          	lw	ra,12(sp)
8000529c:	00812403          	lw	s0,8(sp)
800052a0:	01010113          	addi	sp,sp,16
800052a4:	00008067          	ret
800052a8:	0541a783          	lw	a5,84(gp) # 80007e7c <errno>
800052ac:	fe0786e3          	beqz	a5,80005298 <_sbrk_r+0x24>
800052b0:	00c12083          	lw	ra,12(sp)
800052b4:	00f42023          	sw	a5,0(s0)
800052b8:	00812403          	lw	s0,8(sp)
800052bc:	01010113          	addi	sp,sp,16
800052c0:	00008067          	ret

800052c4 <__sread>:
800052c4:	ff010113          	addi	sp,sp,-16
800052c8:	00812423          	sw	s0,8(sp)
800052cc:	00058413          	mv	s0,a1
800052d0:	00e59583          	lh	a1,14(a1)
800052d4:	00112623          	sw	ra,12(sp)
800052d8:	699000ef          	jal	ra,80006170 <_read_r>
800052dc:	02054063          	bltz	a0,800052fc <__sread+0x38>
800052e0:	05042783          	lw	a5,80(s0)
800052e4:	00c12083          	lw	ra,12(sp)
800052e8:	00a787b3          	add	a5,a5,a0
800052ec:	04f42823          	sw	a5,80(s0)
800052f0:	00812403          	lw	s0,8(sp)
800052f4:	01010113          	addi	sp,sp,16
800052f8:	00008067          	ret
800052fc:	00c45783          	lhu	a5,12(s0)
80005300:	fffff737          	lui	a4,0xfffff
80005304:	fff70713          	addi	a4,a4,-1 # ffffefff <__BSS_END__+0x7fff713b>
80005308:	00e7f7b3          	and	a5,a5,a4
8000530c:	00c12083          	lw	ra,12(sp)
80005310:	00f41623          	sh	a5,12(s0)
80005314:	00812403          	lw	s0,8(sp)
80005318:	01010113          	addi	sp,sp,16
8000531c:	00008067          	ret

80005320 <__seofread>:
80005320:	00000513          	li	a0,0
80005324:	00008067          	ret

80005328 <__swrite>:
80005328:	00c59783          	lh	a5,12(a1)
8000532c:	fe010113          	addi	sp,sp,-32
80005330:	00812c23          	sw	s0,24(sp)
80005334:	00912a23          	sw	s1,20(sp)
80005338:	01212823          	sw	s2,16(sp)
8000533c:	01312623          	sw	s3,12(sp)
80005340:	00112e23          	sw	ra,28(sp)
80005344:	1007f713          	andi	a4,a5,256
80005348:	00058413          	mv	s0,a1
8000534c:	00050493          	mv	s1,a0
80005350:	00060913          	mv	s2,a2
80005354:	00068993          	mv	s3,a3
80005358:	04071063          	bnez	a4,80005398 <__swrite+0x70>
8000535c:	fffff737          	lui	a4,0xfffff
80005360:	fff70713          	addi	a4,a4,-1 # ffffefff <__BSS_END__+0x7fff713b>
80005364:	00e7f7b3          	and	a5,a5,a4
80005368:	00e41583          	lh	a1,14(s0)
8000536c:	00f41623          	sh	a5,12(s0)
80005370:	01812403          	lw	s0,24(sp)
80005374:	01c12083          	lw	ra,28(sp)
80005378:	00098693          	mv	a3,s3
8000537c:	00090613          	mv	a2,s2
80005380:	00c12983          	lw	s3,12(sp)
80005384:	01012903          	lw	s2,16(sp)
80005388:	00048513          	mv	a0,s1
8000538c:	01412483          	lw	s1,20(sp)
80005390:	02010113          	addi	sp,sp,32
80005394:	09c0006f          	j	80005430 <_write_r>
80005398:	00e59583          	lh	a1,14(a1)
8000539c:	00200693          	li	a3,2
800053a0:	00000613          	li	a2,0
800053a4:	309000ef          	jal	ra,80005eac <_lseek_r>
800053a8:	00c41783          	lh	a5,12(s0)
800053ac:	fb1ff06f          	j	8000535c <__swrite+0x34>

800053b0 <__sseek>:
800053b0:	ff010113          	addi	sp,sp,-16
800053b4:	00812423          	sw	s0,8(sp)
800053b8:	00058413          	mv	s0,a1
800053bc:	00e59583          	lh	a1,14(a1)
800053c0:	00112623          	sw	ra,12(sp)
800053c4:	2e9000ef          	jal	ra,80005eac <_lseek_r>
800053c8:	fff00793          	li	a5,-1
800053cc:	02f50863          	beq	a0,a5,800053fc <__sseek+0x4c>
800053d0:	00c45783          	lhu	a5,12(s0)
800053d4:	00001737          	lui	a4,0x1
800053d8:	00c12083          	lw	ra,12(sp)
800053dc:	00e7e7b3          	or	a5,a5,a4
800053e0:	01079793          	slli	a5,a5,0x10
800053e4:	4107d793          	srai	a5,a5,0x10
800053e8:	04a42823          	sw	a0,80(s0)
800053ec:	00f41623          	sh	a5,12(s0)
800053f0:	00812403          	lw	s0,8(sp)
800053f4:	01010113          	addi	sp,sp,16
800053f8:	00008067          	ret
800053fc:	00c45783          	lhu	a5,12(s0)
80005400:	fffff737          	lui	a4,0xfffff
80005404:	fff70713          	addi	a4,a4,-1 # ffffefff <__BSS_END__+0x7fff713b>
80005408:	00e7f7b3          	and	a5,a5,a4
8000540c:	01079793          	slli	a5,a5,0x10
80005410:	4107d793          	srai	a5,a5,0x10
80005414:	00c12083          	lw	ra,12(sp)
80005418:	00f41623          	sh	a5,12(s0)
8000541c:	00812403          	lw	s0,8(sp)
80005420:	01010113          	addi	sp,sp,16
80005424:	00008067          	ret

80005428 <__sclose>:
80005428:	00e59583          	lh	a1,14(a1)
8000542c:	1b40006f          	j	800055e0 <_close_r>

80005430 <_write_r>:
80005430:	ff010113          	addi	sp,sp,-16
80005434:	00058713          	mv	a4,a1
80005438:	00812423          	sw	s0,8(sp)
8000543c:	00060593          	mv	a1,a2
80005440:	00050413          	mv	s0,a0
80005444:	00068613          	mv	a2,a3
80005448:	00070513          	mv	a0,a4
8000544c:	0401aa23          	sw	zero,84(gp) # 80007e7c <errno>
80005450:	00112623          	sw	ra,12(sp)
80005454:	850fd0ef          	jal	ra,800024a4 <_write>
80005458:	fff00793          	li	a5,-1
8000545c:	00f50a63          	beq	a0,a5,80005470 <_write_r+0x40>
80005460:	00c12083          	lw	ra,12(sp)
80005464:	00812403          	lw	s0,8(sp)
80005468:	01010113          	addi	sp,sp,16
8000546c:	00008067          	ret
80005470:	0541a783          	lw	a5,84(gp) # 80007e7c <errno>
80005474:	fe0786e3          	beqz	a5,80005460 <_write_r+0x30>
80005478:	00c12083          	lw	ra,12(sp)
8000547c:	00f42023          	sw	a5,0(s0)
80005480:	00812403          	lw	s0,8(sp)
80005484:	01010113          	addi	sp,sp,16
80005488:	00008067          	ret

8000548c <__swsetup_r>:
8000548c:	ff010113          	addi	sp,sp,-16
80005490:	00812423          	sw	s0,8(sp)
80005494:	00912223          	sw	s1,4(sp)
80005498:	00112623          	sw	ra,12(sp)
8000549c:	03c1a783          	lw	a5,60(gp) # 80007e64 <_impure_ptr>
800054a0:	00050493          	mv	s1,a0
800054a4:	00058413          	mv	s0,a1
800054a8:	00078663          	beqz	a5,800054b4 <__swsetup_r+0x28>
800054ac:	0387a703          	lw	a4,56(a5)
800054b0:	08070063          	beqz	a4,80005530 <__swsetup_r+0xa4>
800054b4:	00c41783          	lh	a5,12(s0)
800054b8:	0087f713          	andi	a4,a5,8
800054bc:	08070463          	beqz	a4,80005544 <__swsetup_r+0xb8>
800054c0:	01042703          	lw	a4,16(s0)
800054c4:	0a070063          	beqz	a4,80005564 <__swsetup_r+0xd8>
800054c8:	0017f693          	andi	a3,a5,1
800054cc:	02068863          	beqz	a3,800054fc <__swsetup_r+0x70>
800054d0:	01442683          	lw	a3,20(s0)
800054d4:	00042423          	sw	zero,8(s0)
800054d8:	00000513          	li	a0,0
800054dc:	40d006b3          	neg	a3,a3
800054e0:	00d42c23          	sw	a3,24(s0)
800054e4:	02070a63          	beqz	a4,80005518 <__swsetup_r+0x8c>
800054e8:	00c12083          	lw	ra,12(sp)
800054ec:	00812403          	lw	s0,8(sp)
800054f0:	00412483          	lw	s1,4(sp)
800054f4:	01010113          	addi	sp,sp,16
800054f8:	00008067          	ret
800054fc:	0027f693          	andi	a3,a5,2
80005500:	00000613          	li	a2,0
80005504:	00069463          	bnez	a3,8000550c <__swsetup_r+0x80>
80005508:	01442603          	lw	a2,20(s0)
8000550c:	00c42423          	sw	a2,8(s0)
80005510:	00000513          	li	a0,0
80005514:	fc071ae3          	bnez	a4,800054e8 <__swsetup_r+0x5c>
80005518:	0807f713          	andi	a4,a5,128
8000551c:	fc0706e3          	beqz	a4,800054e8 <__swsetup_r+0x5c>
80005520:	0407e793          	ori	a5,a5,64
80005524:	00f41623          	sh	a5,12(s0)
80005528:	fff00513          	li	a0,-1
8000552c:	fbdff06f          	j	800054e8 <__swsetup_r+0x5c>
80005530:	00078513          	mv	a0,a5
80005534:	e40fe0ef          	jal	ra,80003b74 <__sinit>
80005538:	00c41783          	lh	a5,12(s0)
8000553c:	0087f713          	andi	a4,a5,8
80005540:	f80710e3          	bnez	a4,800054c0 <__swsetup_r+0x34>
80005544:	0107f713          	andi	a4,a5,16
80005548:	06070a63          	beqz	a4,800055bc <__swsetup_r+0x130>
8000554c:	0047f713          	andi	a4,a5,4
80005550:	02071c63          	bnez	a4,80005588 <__swsetup_r+0xfc>
80005554:	01042703          	lw	a4,16(s0)
80005558:	0087e793          	ori	a5,a5,8
8000555c:	00f41623          	sh	a5,12(s0)
80005560:	f60714e3          	bnez	a4,800054c8 <__swsetup_r+0x3c>
80005564:	2807f693          	andi	a3,a5,640
80005568:	20000613          	li	a2,512
8000556c:	f4c68ee3          	beq	a3,a2,800054c8 <__swsetup_r+0x3c>
80005570:	00040593          	mv	a1,s0
80005574:	00048513          	mv	a0,s1
80005578:	191000ef          	jal	ra,80005f08 <__smakebuf_r>
8000557c:	00c41783          	lh	a5,12(s0)
80005580:	01042703          	lw	a4,16(s0)
80005584:	f45ff06f          	j	800054c8 <__swsetup_r+0x3c>
80005588:	03042583          	lw	a1,48(s0)
8000558c:	00058e63          	beqz	a1,800055a8 <__swsetup_r+0x11c>
80005590:	04040713          	addi	a4,s0,64
80005594:	00e58863          	beq	a1,a4,800055a4 <__swsetup_r+0x118>
80005598:	00048513          	mv	a0,s1
8000559c:	60c000ef          	jal	ra,80005ba8 <_free_r>
800055a0:	00c41783          	lh	a5,12(s0)
800055a4:	02042823          	sw	zero,48(s0)
800055a8:	01042703          	lw	a4,16(s0)
800055ac:	fdb7f793          	andi	a5,a5,-37
800055b0:	00042223          	sw	zero,4(s0)
800055b4:	00e42023          	sw	a4,0(s0)
800055b8:	fa1ff06f          	j	80005558 <__swsetup_r+0xcc>
800055bc:	00900713          	li	a4,9
800055c0:	00e4a023          	sw	a4,0(s1)
800055c4:	0407e793          	ori	a5,a5,64
800055c8:	f5dff06f          	j	80005524 <__swsetup_r+0x98>

800055cc <atexit>:
800055cc:	00050593          	mv	a1,a0
800055d0:	00000693          	li	a3,0
800055d4:	00000613          	li	a2,0
800055d8:	00000513          	li	a0,0
800055dc:	5a10006f          	j	8000637c <__register_exitproc>

800055e0 <_close_r>:
800055e0:	ff010113          	addi	sp,sp,-16
800055e4:	00812423          	sw	s0,8(sp)
800055e8:	00050413          	mv	s0,a0
800055ec:	00058513          	mv	a0,a1
800055f0:	0401aa23          	sw	zero,84(gp) # 80007e7c <errno>
800055f4:	00112623          	sw	ra,12(sp)
800055f8:	f19fc0ef          	jal	ra,80002510 <_close>
800055fc:	fff00793          	li	a5,-1
80005600:	00f50a63          	beq	a0,a5,80005614 <_close_r+0x34>
80005604:	00c12083          	lw	ra,12(sp)
80005608:	00812403          	lw	s0,8(sp)
8000560c:	01010113          	addi	sp,sp,16
80005610:	00008067          	ret
80005614:	0541a783          	lw	a5,84(gp) # 80007e7c <errno>
80005618:	fe0786e3          	beqz	a5,80005604 <_close_r+0x24>
8000561c:	00c12083          	lw	ra,12(sp)
80005620:	00f42023          	sw	a5,0(s0)
80005624:	00812403          	lw	s0,8(sp)
80005628:	01010113          	addi	sp,sp,16
8000562c:	00008067          	ret

80005630 <_fclose_r>:
80005630:	ff010113          	addi	sp,sp,-16
80005634:	00112623          	sw	ra,12(sp)
80005638:	00812423          	sw	s0,8(sp)
8000563c:	00912223          	sw	s1,4(sp)
80005640:	01212023          	sw	s2,0(sp)
80005644:	02058063          	beqz	a1,80005664 <_fclose_r+0x34>
80005648:	00058413          	mv	s0,a1
8000564c:	00050493          	mv	s1,a0
80005650:	00050663          	beqz	a0,8000565c <_fclose_r+0x2c>
80005654:	03852783          	lw	a5,56(a0)
80005658:	0a078c63          	beqz	a5,80005710 <_fclose_r+0xe0>
8000565c:	00c41783          	lh	a5,12(s0)
80005660:	02079263          	bnez	a5,80005684 <_fclose_r+0x54>
80005664:	00c12083          	lw	ra,12(sp)
80005668:	00812403          	lw	s0,8(sp)
8000566c:	00000913          	li	s2,0
80005670:	00412483          	lw	s1,4(sp)
80005674:	00090513          	mv	a0,s2
80005678:	00012903          	lw	s2,0(sp)
8000567c:	01010113          	addi	sp,sp,16
80005680:	00008067          	ret
80005684:	00040593          	mv	a1,s0
80005688:	00048513          	mv	a0,s1
8000568c:	0c0000ef          	jal	ra,8000574c <__sflush_r>
80005690:	02c42783          	lw	a5,44(s0)
80005694:	00050913          	mv	s2,a0
80005698:	00078a63          	beqz	a5,800056ac <_fclose_r+0x7c>
8000569c:	01c42583          	lw	a1,28(s0)
800056a0:	00048513          	mv	a0,s1
800056a4:	000780e7          	jalr	a5
800056a8:	06054c63          	bltz	a0,80005720 <_fclose_r+0xf0>
800056ac:	00c45783          	lhu	a5,12(s0)
800056b0:	0807f793          	andi	a5,a5,128
800056b4:	06079e63          	bnez	a5,80005730 <_fclose_r+0x100>
800056b8:	03042583          	lw	a1,48(s0)
800056bc:	00058c63          	beqz	a1,800056d4 <_fclose_r+0xa4>
800056c0:	04040793          	addi	a5,s0,64
800056c4:	00f58663          	beq	a1,a5,800056d0 <_fclose_r+0xa0>
800056c8:	00048513          	mv	a0,s1
800056cc:	4dc000ef          	jal	ra,80005ba8 <_free_r>
800056d0:	02042823          	sw	zero,48(s0)
800056d4:	04442583          	lw	a1,68(s0)
800056d8:	00058863          	beqz	a1,800056e8 <_fclose_r+0xb8>
800056dc:	00048513          	mv	a0,s1
800056e0:	4c8000ef          	jal	ra,80005ba8 <_free_r>
800056e4:	04042223          	sw	zero,68(s0)
800056e8:	c9cfe0ef          	jal	ra,80003b84 <__sfp_lock_acquire>
800056ec:	00041623          	sh	zero,12(s0)
800056f0:	c98fe0ef          	jal	ra,80003b88 <__sfp_lock_release>
800056f4:	00c12083          	lw	ra,12(sp)
800056f8:	00812403          	lw	s0,8(sp)
800056fc:	00412483          	lw	s1,4(sp)
80005700:	00090513          	mv	a0,s2
80005704:	00012903          	lw	s2,0(sp)
80005708:	01010113          	addi	sp,sp,16
8000570c:	00008067          	ret
80005710:	c64fe0ef          	jal	ra,80003b74 <__sinit>
80005714:	00c41783          	lh	a5,12(s0)
80005718:	f40786e3          	beqz	a5,80005664 <_fclose_r+0x34>
8000571c:	f69ff06f          	j	80005684 <_fclose_r+0x54>
80005720:	00c45783          	lhu	a5,12(s0)
80005724:	fff00913          	li	s2,-1
80005728:	0807f793          	andi	a5,a5,128
8000572c:	f80786e3          	beqz	a5,800056b8 <_fclose_r+0x88>
80005730:	01042583          	lw	a1,16(s0)
80005734:	00048513          	mv	a0,s1
80005738:	470000ef          	jal	ra,80005ba8 <_free_r>
8000573c:	f7dff06f          	j	800056b8 <_fclose_r+0x88>

80005740 <fclose>:
80005740:	00050593          	mv	a1,a0
80005744:	03c1a503          	lw	a0,60(gp) # 80007e64 <_impure_ptr>
80005748:	ee9ff06f          	j	80005630 <_fclose_r>

8000574c <__sflush_r>:
8000574c:	00c59783          	lh	a5,12(a1)
80005750:	fe010113          	addi	sp,sp,-32
80005754:	00812c23          	sw	s0,24(sp)
80005758:	01312623          	sw	s3,12(sp)
8000575c:	00112e23          	sw	ra,28(sp)
80005760:	00912a23          	sw	s1,20(sp)
80005764:	01212823          	sw	s2,16(sp)
80005768:	0087f713          	andi	a4,a5,8
8000576c:	00058413          	mv	s0,a1
80005770:	00050993          	mv	s3,a0
80005774:	12071263          	bnez	a4,80005898 <__sflush_r+0x14c>
80005778:	00001737          	lui	a4,0x1
8000577c:	80070713          	addi	a4,a4,-2048 # 800 <_reset-0x7ffff800>
80005780:	0045a683          	lw	a3,4(a1)
80005784:	00e7e733          	or	a4,a5,a4
80005788:	00e59623          	sh	a4,12(a1)
8000578c:	18d05863          	blez	a3,8000591c <__sflush_r+0x1d0>
80005790:	02842803          	lw	a6,40(s0)
80005794:	0e080263          	beqz	a6,80005878 <__sflush_r+0x12c>
80005798:	00c7d793          	srli	a5,a5,0xc
8000579c:	0009a483          	lw	s1,0(s3)
800057a0:	0017f793          	andi	a5,a5,1
800057a4:	0009a023          	sw	zero,0(s3)
800057a8:	01c42583          	lw	a1,28(s0)
800057ac:	18079063          	bnez	a5,8000592c <__sflush_r+0x1e0>
800057b0:	00000613          	li	a2,0
800057b4:	00100693          	li	a3,1
800057b8:	00098513          	mv	a0,s3
800057bc:	000800e7          	jalr	a6
800057c0:	fff00793          	li	a5,-1
800057c4:	00050613          	mv	a2,a0
800057c8:	1af50063          	beq	a0,a5,80005968 <__sflush_r+0x21c>
800057cc:	00c41703          	lh	a4,12(s0)
800057d0:	02842803          	lw	a6,40(s0)
800057d4:	01c42583          	lw	a1,28(s0)
800057d8:	00477713          	andi	a4,a4,4
800057dc:	00070e63          	beqz	a4,800057f8 <__sflush_r+0xac>
800057e0:	00442703          	lw	a4,4(s0)
800057e4:	03042783          	lw	a5,48(s0)
800057e8:	40e60633          	sub	a2,a2,a4
800057ec:	00078663          	beqz	a5,800057f8 <__sflush_r+0xac>
800057f0:	03c42783          	lw	a5,60(s0)
800057f4:	40f60633          	sub	a2,a2,a5
800057f8:	00000693          	li	a3,0
800057fc:	00098513          	mv	a0,s3
80005800:	000800e7          	jalr	a6
80005804:	fff00793          	li	a5,-1
80005808:	12f51663          	bne	a0,a5,80005934 <__sflush_r+0x1e8>
8000580c:	0009a683          	lw	a3,0(s3)
80005810:	01d00793          	li	a5,29
80005814:	0cd7ee63          	bltu	a5,a3,800058f0 <__sflush_r+0x1a4>
80005818:	dfc00737          	lui	a4,0xdfc00
8000581c:	ffe70713          	addi	a4,a4,-2 # dfbffffe <__BSS_END__+0x5fbf813a>
80005820:	40d75733          	sra	a4,a4,a3
80005824:	00177713          	andi	a4,a4,1
80005828:	00c41783          	lh	a5,12(s0)
8000582c:	0c071463          	bnez	a4,800058f4 <__sflush_r+0x1a8>
80005830:	01042603          	lw	a2,16(s0)
80005834:	fffff737          	lui	a4,0xfffff
80005838:	7ff70713          	addi	a4,a4,2047 # fffff7ff <__BSS_END__+0x7fff793b>
8000583c:	00e7f733          	and	a4,a5,a4
80005840:	00c7d793          	srli	a5,a5,0xc
80005844:	00e41623          	sh	a4,12(s0)
80005848:	00042223          	sw	zero,4(s0)
8000584c:	00c42023          	sw	a2,0(s0)
80005850:	0017f793          	andi	a5,a5,1
80005854:	12079c63          	bnez	a5,8000598c <__sflush_r+0x240>
80005858:	03042583          	lw	a1,48(s0)
8000585c:	0099a023          	sw	s1,0(s3)
80005860:	00058c63          	beqz	a1,80005878 <__sflush_r+0x12c>
80005864:	04040793          	addi	a5,s0,64
80005868:	00f58663          	beq	a1,a5,80005874 <__sflush_r+0x128>
8000586c:	00098513          	mv	a0,s3
80005870:	338000ef          	jal	ra,80005ba8 <_free_r>
80005874:	02042823          	sw	zero,48(s0)
80005878:	00000513          	li	a0,0
8000587c:	01c12083          	lw	ra,28(sp)
80005880:	01812403          	lw	s0,24(sp)
80005884:	01412483          	lw	s1,20(sp)
80005888:	01012903          	lw	s2,16(sp)
8000588c:	00c12983          	lw	s3,12(sp)
80005890:	02010113          	addi	sp,sp,32
80005894:	00008067          	ret
80005898:	0105a903          	lw	s2,16(a1)
8000589c:	fc090ee3          	beqz	s2,80005878 <__sflush_r+0x12c>
800058a0:	0005a483          	lw	s1,0(a1)
800058a4:	0037f793          	andi	a5,a5,3
800058a8:	0125a023          	sw	s2,0(a1)
800058ac:	412484b3          	sub	s1,s1,s2
800058b0:	00000713          	li	a4,0
800058b4:	00079463          	bnez	a5,800058bc <__sflush_r+0x170>
800058b8:	0145a703          	lw	a4,20(a1)
800058bc:	00e42423          	sw	a4,8(s0)
800058c0:	00904863          	bgtz	s1,800058d0 <__sflush_r+0x184>
800058c4:	fb5ff06f          	j	80005878 <__sflush_r+0x12c>
800058c8:	00a90933          	add	s2,s2,a0
800058cc:	fa9056e3          	blez	s1,80005878 <__sflush_r+0x12c>
800058d0:	02442783          	lw	a5,36(s0)
800058d4:	01c42583          	lw	a1,28(s0)
800058d8:	00048693          	mv	a3,s1
800058dc:	00090613          	mv	a2,s2
800058e0:	00098513          	mv	a0,s3
800058e4:	000780e7          	jalr	a5
800058e8:	40a484b3          	sub	s1,s1,a0
800058ec:	fca04ee3          	bgtz	a0,800058c8 <__sflush_r+0x17c>
800058f0:	00c41783          	lh	a5,12(s0)
800058f4:	0407e793          	ori	a5,a5,64
800058f8:	01c12083          	lw	ra,28(sp)
800058fc:	00f41623          	sh	a5,12(s0)
80005900:	01812403          	lw	s0,24(sp)
80005904:	01412483          	lw	s1,20(sp)
80005908:	01012903          	lw	s2,16(sp)
8000590c:	00c12983          	lw	s3,12(sp)
80005910:	fff00513          	li	a0,-1
80005914:	02010113          	addi	sp,sp,32
80005918:	00008067          	ret
8000591c:	03c5a683          	lw	a3,60(a1)
80005920:	e6d048e3          	bgtz	a3,80005790 <__sflush_r+0x44>
80005924:	00000513          	li	a0,0
80005928:	f55ff06f          	j	8000587c <__sflush_r+0x130>
8000592c:	05042603          	lw	a2,80(s0)
80005930:	ea9ff06f          	j	800057d8 <__sflush_r+0x8c>
80005934:	00c41783          	lh	a5,12(s0)
80005938:	01042683          	lw	a3,16(s0)
8000593c:	fffff737          	lui	a4,0xfffff
80005940:	7ff70713          	addi	a4,a4,2047 # fffff7ff <__BSS_END__+0x7fff793b>
80005944:	00e7f733          	and	a4,a5,a4
80005948:	00c7d793          	srli	a5,a5,0xc
8000594c:	00e41623          	sh	a4,12(s0)
80005950:	00042223          	sw	zero,4(s0)
80005954:	00d42023          	sw	a3,0(s0)
80005958:	0017f793          	andi	a5,a5,1
8000595c:	ee078ee3          	beqz	a5,80005858 <__sflush_r+0x10c>
80005960:	04a42823          	sw	a0,80(s0)
80005964:	ef5ff06f          	j	80005858 <__sflush_r+0x10c>
80005968:	0009a783          	lw	a5,0(s3)
8000596c:	e60780e3          	beqz	a5,800057cc <__sflush_r+0x80>
80005970:	01d00713          	li	a4,29
80005974:	00e78663          	beq	a5,a4,80005980 <__sflush_r+0x234>
80005978:	01600713          	li	a4,22
8000597c:	f6e79ae3          	bne	a5,a4,800058f0 <__sflush_r+0x1a4>
80005980:	0099a023          	sw	s1,0(s3)
80005984:	00000513          	li	a0,0
80005988:	ef5ff06f          	j	8000587c <__sflush_r+0x130>
8000598c:	ec0696e3          	bnez	a3,80005858 <__sflush_r+0x10c>
80005990:	04a42823          	sw	a0,80(s0)
80005994:	ec5ff06f          	j	80005858 <__sflush_r+0x10c>

80005998 <_fflush_r>:
80005998:	fe010113          	addi	sp,sp,-32
8000599c:	00812c23          	sw	s0,24(sp)
800059a0:	00112e23          	sw	ra,28(sp)
800059a4:	00050413          	mv	s0,a0
800059a8:	00050663          	beqz	a0,800059b4 <_fflush_r+0x1c>
800059ac:	03852783          	lw	a5,56(a0)
800059b0:	02078063          	beqz	a5,800059d0 <_fflush_r+0x38>
800059b4:	00c59783          	lh	a5,12(a1)
800059b8:	02079663          	bnez	a5,800059e4 <_fflush_r+0x4c>
800059bc:	01c12083          	lw	ra,28(sp)
800059c0:	01812403          	lw	s0,24(sp)
800059c4:	00000513          	li	a0,0
800059c8:	02010113          	addi	sp,sp,32
800059cc:	00008067          	ret
800059d0:	00b12623          	sw	a1,12(sp)
800059d4:	9a0fe0ef          	jal	ra,80003b74 <__sinit>
800059d8:	00c12583          	lw	a1,12(sp)
800059dc:	00c59783          	lh	a5,12(a1)
800059e0:	fc078ee3          	beqz	a5,800059bc <_fflush_r+0x24>
800059e4:	00040513          	mv	a0,s0
800059e8:	01812403          	lw	s0,24(sp)
800059ec:	01c12083          	lw	ra,28(sp)
800059f0:	02010113          	addi	sp,sp,32
800059f4:	d59ff06f          	j	8000574c <__sflush_r>

800059f8 <fflush>:
800059f8:	06050663          	beqz	a0,80005a64 <fflush+0x6c>
800059fc:	fe010113          	addi	sp,sp,-32
80005a00:	00812c23          	sw	s0,24(sp)
80005a04:	00112e23          	sw	ra,28(sp)
80005a08:	00050413          	mv	s0,a0
80005a0c:	03c1a503          	lw	a0,60(gp) # 80007e64 <_impure_ptr>
80005a10:	00050663          	beqz	a0,80005a1c <fflush+0x24>
80005a14:	03852783          	lw	a5,56(a0)
80005a18:	02078a63          	beqz	a5,80005a4c <fflush+0x54>
80005a1c:	00c41783          	lh	a5,12(s0)
80005a20:	00079c63          	bnez	a5,80005a38 <fflush+0x40>
80005a24:	01c12083          	lw	ra,28(sp)
80005a28:	01812403          	lw	s0,24(sp)
80005a2c:	00000513          	li	a0,0
80005a30:	02010113          	addi	sp,sp,32
80005a34:	00008067          	ret
80005a38:	00040593          	mv	a1,s0
80005a3c:	01812403          	lw	s0,24(sp)
80005a40:	01c12083          	lw	ra,28(sp)
80005a44:	02010113          	addi	sp,sp,32
80005a48:	d05ff06f          	j	8000574c <__sflush_r>
80005a4c:	00a12623          	sw	a0,12(sp)
80005a50:	924fe0ef          	jal	ra,80003b74 <__sinit>
80005a54:	00c41783          	lh	a5,12(s0)
80005a58:	00c12503          	lw	a0,12(sp)
80005a5c:	fc0784e3          	beqz	a5,80005a24 <fflush+0x2c>
80005a60:	fd9ff06f          	j	80005a38 <fflush+0x40>
80005a64:	00000597          	auipc	a1,0x0
80005a68:	f3458593          	addi	a1,a1,-204 # 80005998 <_fflush_r>
80005a6c:	0301a503          	lw	a0,48(gp) # 80007e58 <_global_impure_ptr>
80005a70:	ee0fe06f          	j	80004150 <_fwalk_reent>

80005a74 <_malloc_trim_r>:
80005a74:	fe010113          	addi	sp,sp,-32
80005a78:	00812c23          	sw	s0,24(sp)
80005a7c:	00912a23          	sw	s1,20(sp)
80005a80:	01212823          	sw	s2,16(sp)
80005a84:	01312623          	sw	s3,12(sp)
80005a88:	01412423          	sw	s4,8(sp)
80005a8c:	00058993          	mv	s3,a1
80005a90:	00112e23          	sw	ra,28(sp)
80005a94:	00002a17          	auipc	s4,0x2
80005a98:	fbca0a13          	addi	s4,s4,-68 # 80007a50 <__malloc_av_>
80005a9c:	00050913          	mv	s2,a0
80005aa0:	a74ff0ef          	jal	ra,80004d14 <__malloc_lock>
80005aa4:	008a2703          	lw	a4,8(s4)
80005aa8:	000017b7          	lui	a5,0x1
80005aac:	fef78413          	addi	s0,a5,-17 # fef <_reset-0x7ffff011>
80005ab0:	00472483          	lw	s1,4(a4)
80005ab4:	ffc4f493          	andi	s1,s1,-4
80005ab8:	00848433          	add	s0,s1,s0
80005abc:	41340433          	sub	s0,s0,s3
80005ac0:	00c45413          	srli	s0,s0,0xc
80005ac4:	fff40413          	addi	s0,s0,-1
80005ac8:	00c41413          	slli	s0,s0,0xc
80005acc:	00f44e63          	blt	s0,a5,80005ae8 <_malloc_trim_r+0x74>
80005ad0:	00000593          	li	a1,0
80005ad4:	00090513          	mv	a0,s2
80005ad8:	f9cff0ef          	jal	ra,80005274 <_sbrk_r>
80005adc:	008a2783          	lw	a5,8(s4)
80005ae0:	009787b3          	add	a5,a5,s1
80005ae4:	02f50863          	beq	a0,a5,80005b14 <_malloc_trim_r+0xa0>
80005ae8:	00090513          	mv	a0,s2
80005aec:	a2cff0ef          	jal	ra,80004d18 <__malloc_unlock>
80005af0:	01c12083          	lw	ra,28(sp)
80005af4:	01812403          	lw	s0,24(sp)
80005af8:	01412483          	lw	s1,20(sp)
80005afc:	01012903          	lw	s2,16(sp)
80005b00:	00c12983          	lw	s3,12(sp)
80005b04:	00812a03          	lw	s4,8(sp)
80005b08:	00000513          	li	a0,0
80005b0c:	02010113          	addi	sp,sp,32
80005b10:	00008067          	ret
80005b14:	408005b3          	neg	a1,s0
80005b18:	00090513          	mv	a0,s2
80005b1c:	f58ff0ef          	jal	ra,80005274 <_sbrk_r>
80005b20:	fff00793          	li	a5,-1
80005b24:	04f50863          	beq	a0,a5,80005b74 <_malloc_trim_r+0x100>
80005b28:	07418713          	addi	a4,gp,116 # 80007e9c <__malloc_current_mallinfo>
80005b2c:	00072783          	lw	a5,0(a4)
80005b30:	008a2683          	lw	a3,8(s4)
80005b34:	408484b3          	sub	s1,s1,s0
80005b38:	0014e493          	ori	s1,s1,1
80005b3c:	408787b3          	sub	a5,a5,s0
80005b40:	00090513          	mv	a0,s2
80005b44:	0096a223          	sw	s1,4(a3)
80005b48:	00f72023          	sw	a5,0(a4)
80005b4c:	9ccff0ef          	jal	ra,80004d18 <__malloc_unlock>
80005b50:	01c12083          	lw	ra,28(sp)
80005b54:	01812403          	lw	s0,24(sp)
80005b58:	01412483          	lw	s1,20(sp)
80005b5c:	01012903          	lw	s2,16(sp)
80005b60:	00c12983          	lw	s3,12(sp)
80005b64:	00812a03          	lw	s4,8(sp)
80005b68:	00100513          	li	a0,1
80005b6c:	02010113          	addi	sp,sp,32
80005b70:	00008067          	ret
80005b74:	00000593          	li	a1,0
80005b78:	00090513          	mv	a0,s2
80005b7c:	ef8ff0ef          	jal	ra,80005274 <_sbrk_r>
80005b80:	008a2703          	lw	a4,8(s4)
80005b84:	00f00693          	li	a3,15
80005b88:	40e507b3          	sub	a5,a0,a4
80005b8c:	f4f6dee3          	bge	a3,a5,80005ae8 <_malloc_trim_r+0x74>
80005b90:	0401a683          	lw	a3,64(gp) # 80007e68 <__malloc_sbrk_base>
80005b94:	40d50533          	sub	a0,a0,a3
80005b98:	0017e793          	ori	a5,a5,1
80005b9c:	06a1aa23          	sw	a0,116(gp) # 80007e9c <__malloc_current_mallinfo>
80005ba0:	00f72223          	sw	a5,4(a4)
80005ba4:	f45ff06f          	j	80005ae8 <_malloc_trim_r+0x74>

80005ba8 <_free_r>:
80005ba8:	18058263          	beqz	a1,80005d2c <_free_r+0x184>
80005bac:	ff010113          	addi	sp,sp,-16
80005bb0:	00812423          	sw	s0,8(sp)
80005bb4:	00912223          	sw	s1,4(sp)
80005bb8:	00058413          	mv	s0,a1
80005bbc:	00050493          	mv	s1,a0
80005bc0:	00112623          	sw	ra,12(sp)
80005bc4:	950ff0ef          	jal	ra,80004d14 <__malloc_lock>
80005bc8:	ffc42583          	lw	a1,-4(s0)
80005bcc:	ff840713          	addi	a4,s0,-8
80005bd0:	00002517          	auipc	a0,0x2
80005bd4:	e8050513          	addi	a0,a0,-384 # 80007a50 <__malloc_av_>
80005bd8:	ffe5f793          	andi	a5,a1,-2
80005bdc:	00f70633          	add	a2,a4,a5
80005be0:	00462683          	lw	a3,4(a2)
80005be4:	00852803          	lw	a6,8(a0)
80005be8:	ffc6f693          	andi	a3,a3,-4
80005bec:	1ac80263          	beq	a6,a2,80005d90 <_free_r+0x1e8>
80005bf0:	00d62223          	sw	a3,4(a2)
80005bf4:	0015f593          	andi	a1,a1,1
80005bf8:	00d60833          	add	a6,a2,a3
80005bfc:	0a059063          	bnez	a1,80005c9c <_free_r+0xf4>
80005c00:	ff842303          	lw	t1,-8(s0)
80005c04:	00482583          	lw	a1,4(a6)
80005c08:	00002897          	auipc	a7,0x2
80005c0c:	e5088893          	addi	a7,a7,-432 # 80007a58 <__malloc_av_+0x8>
80005c10:	40670733          	sub	a4,a4,t1
80005c14:	00872803          	lw	a6,8(a4)
80005c18:	006787b3          	add	a5,a5,t1
80005c1c:	0015f593          	andi	a1,a1,1
80005c20:	15180263          	beq	a6,a7,80005d64 <_free_r+0x1bc>
80005c24:	00c72303          	lw	t1,12(a4)
80005c28:	00682623          	sw	t1,12(a6)
80005c2c:	01032423          	sw	a6,8(t1)
80005c30:	1a058663          	beqz	a1,80005ddc <_free_r+0x234>
80005c34:	0017e693          	ori	a3,a5,1
80005c38:	00d72223          	sw	a3,4(a4)
80005c3c:	00f62023          	sw	a5,0(a2)
80005c40:	1ff00693          	li	a3,511
80005c44:	06f6ec63          	bltu	a3,a5,80005cbc <_free_r+0x114>
80005c48:	ff87f693          	andi	a3,a5,-8
80005c4c:	00868693          	addi	a3,a3,8
80005c50:	00452583          	lw	a1,4(a0)
80005c54:	00d506b3          	add	a3,a0,a3
80005c58:	0006a603          	lw	a2,0(a3)
80005c5c:	0057d813          	srli	a6,a5,0x5
80005c60:	00100793          	li	a5,1
80005c64:	010797b3          	sll	a5,a5,a6
80005c68:	00b7e7b3          	or	a5,a5,a1
80005c6c:	ff868593          	addi	a1,a3,-8
80005c70:	00b72623          	sw	a1,12(a4)
80005c74:	00c72423          	sw	a2,8(a4)
80005c78:	00f52223          	sw	a5,4(a0)
80005c7c:	00e6a023          	sw	a4,0(a3)
80005c80:	00e62623          	sw	a4,12(a2)
80005c84:	00812403          	lw	s0,8(sp)
80005c88:	00c12083          	lw	ra,12(sp)
80005c8c:	00048513          	mv	a0,s1
80005c90:	00412483          	lw	s1,4(sp)
80005c94:	01010113          	addi	sp,sp,16
80005c98:	880ff06f          	j	80004d18 <__malloc_unlock>
80005c9c:	00482583          	lw	a1,4(a6)
80005ca0:	0015f593          	andi	a1,a1,1
80005ca4:	08058663          	beqz	a1,80005d30 <_free_r+0x188>
80005ca8:	0017e693          	ori	a3,a5,1
80005cac:	fed42e23          	sw	a3,-4(s0)
80005cb0:	00f62023          	sw	a5,0(a2)
80005cb4:	1ff00693          	li	a3,511
80005cb8:	f8f6f8e3          	bgeu	a3,a5,80005c48 <_free_r+0xa0>
80005cbc:	0097d693          	srli	a3,a5,0x9
80005cc0:	00400613          	li	a2,4
80005cc4:	12d66063          	bltu	a2,a3,80005de4 <_free_r+0x23c>
80005cc8:	0067d693          	srli	a3,a5,0x6
80005ccc:	03968593          	addi	a1,a3,57
80005cd0:	03868613          	addi	a2,a3,56
80005cd4:	00359593          	slli	a1,a1,0x3
80005cd8:	00b505b3          	add	a1,a0,a1
80005cdc:	0005a683          	lw	a3,0(a1)
80005ce0:	ff858593          	addi	a1,a1,-8
80005ce4:	00d59863          	bne	a1,a3,80005cf4 <_free_r+0x14c>
80005ce8:	1540006f          	j	80005e3c <_free_r+0x294>
80005cec:	0086a683          	lw	a3,8(a3)
80005cf0:	00d58863          	beq	a1,a3,80005d00 <_free_r+0x158>
80005cf4:	0046a603          	lw	a2,4(a3)
80005cf8:	ffc67613          	andi	a2,a2,-4
80005cfc:	fec7e8e3          	bltu	a5,a2,80005cec <_free_r+0x144>
80005d00:	00c6a583          	lw	a1,12(a3)
80005d04:	00b72623          	sw	a1,12(a4)
80005d08:	00d72423          	sw	a3,8(a4)
80005d0c:	00812403          	lw	s0,8(sp)
80005d10:	00c12083          	lw	ra,12(sp)
80005d14:	00e5a423          	sw	a4,8(a1)
80005d18:	00048513          	mv	a0,s1
80005d1c:	00412483          	lw	s1,4(sp)
80005d20:	00e6a623          	sw	a4,12(a3)
80005d24:	01010113          	addi	sp,sp,16
80005d28:	ff1fe06f          	j	80004d18 <__malloc_unlock>
80005d2c:	00008067          	ret
80005d30:	00d787b3          	add	a5,a5,a3
80005d34:	00002897          	auipc	a7,0x2
80005d38:	d2488893          	addi	a7,a7,-732 # 80007a58 <__malloc_av_+0x8>
80005d3c:	00862683          	lw	a3,8(a2)
80005d40:	0d168c63          	beq	a3,a7,80005e18 <_free_r+0x270>
80005d44:	00c62803          	lw	a6,12(a2)
80005d48:	0017e593          	ori	a1,a5,1
80005d4c:	00f70633          	add	a2,a4,a5
80005d50:	0106a623          	sw	a6,12(a3)
80005d54:	00d82423          	sw	a3,8(a6)
80005d58:	00b72223          	sw	a1,4(a4)
80005d5c:	00f62023          	sw	a5,0(a2)
80005d60:	ee1ff06f          	j	80005c40 <_free_r+0x98>
80005d64:	12059c63          	bnez	a1,80005e9c <_free_r+0x2f4>
80005d68:	00862583          	lw	a1,8(a2)
80005d6c:	00c62603          	lw	a2,12(a2)
80005d70:	00f686b3          	add	a3,a3,a5
80005d74:	0016e793          	ori	a5,a3,1
80005d78:	00c5a623          	sw	a2,12(a1)
80005d7c:	00b62423          	sw	a1,8(a2)
80005d80:	00f72223          	sw	a5,4(a4)
80005d84:	00d70733          	add	a4,a4,a3
80005d88:	00d72023          	sw	a3,0(a4)
80005d8c:	ef9ff06f          	j	80005c84 <_free_r+0xdc>
80005d90:	0015f593          	andi	a1,a1,1
80005d94:	00d786b3          	add	a3,a5,a3
80005d98:	02059063          	bnez	a1,80005db8 <_free_r+0x210>
80005d9c:	ff842583          	lw	a1,-8(s0)
80005da0:	40b70733          	sub	a4,a4,a1
80005da4:	00c72783          	lw	a5,12(a4)
80005da8:	00872603          	lw	a2,8(a4)
80005dac:	00b686b3          	add	a3,a3,a1
80005db0:	00f62623          	sw	a5,12(a2)
80005db4:	00c7a423          	sw	a2,8(a5)
80005db8:	0016e793          	ori	a5,a3,1
80005dbc:	00f72223          	sw	a5,4(a4)
80005dc0:	00e52423          	sw	a4,8(a0)
80005dc4:	0441a783          	lw	a5,68(gp) # 80007e6c <__malloc_trim_threshold>
80005dc8:	eaf6eee3          	bltu	a3,a5,80005c84 <_free_r+0xdc>
80005dcc:	0501a583          	lw	a1,80(gp) # 80007e78 <__malloc_top_pad>
80005dd0:	00048513          	mv	a0,s1
80005dd4:	ca1ff0ef          	jal	ra,80005a74 <_malloc_trim_r>
80005dd8:	eadff06f          	j	80005c84 <_free_r+0xdc>
80005ddc:	00d787b3          	add	a5,a5,a3
80005de0:	f5dff06f          	j	80005d3c <_free_r+0x194>
80005de4:	01400613          	li	a2,20
80005de8:	02d67063          	bgeu	a2,a3,80005e08 <_free_r+0x260>
80005dec:	05400613          	li	a2,84
80005df0:	06d66463          	bltu	a2,a3,80005e58 <_free_r+0x2b0>
80005df4:	00c7d693          	srli	a3,a5,0xc
80005df8:	06f68593          	addi	a1,a3,111
80005dfc:	06e68613          	addi	a2,a3,110
80005e00:	00359593          	slli	a1,a1,0x3
80005e04:	ed5ff06f          	j	80005cd8 <_free_r+0x130>
80005e08:	05c68593          	addi	a1,a3,92
80005e0c:	05b68613          	addi	a2,a3,91
80005e10:	00359593          	slli	a1,a1,0x3
80005e14:	ec5ff06f          	j	80005cd8 <_free_r+0x130>
80005e18:	00e52a23          	sw	a4,20(a0)
80005e1c:	00e52823          	sw	a4,16(a0)
80005e20:	0017e693          	ori	a3,a5,1
80005e24:	01172623          	sw	a7,12(a4)
80005e28:	01172423          	sw	a7,8(a4)
80005e2c:	00d72223          	sw	a3,4(a4)
80005e30:	00f70733          	add	a4,a4,a5
80005e34:	00f72023          	sw	a5,0(a4)
80005e38:	e4dff06f          	j	80005c84 <_free_r+0xdc>
80005e3c:	00452803          	lw	a6,4(a0)
80005e40:	40265613          	srai	a2,a2,0x2
80005e44:	00100793          	li	a5,1
80005e48:	00c797b3          	sll	a5,a5,a2
80005e4c:	0107e7b3          	or	a5,a5,a6
80005e50:	00f52223          	sw	a5,4(a0)
80005e54:	eb1ff06f          	j	80005d04 <_free_r+0x15c>
80005e58:	15400613          	li	a2,340
80005e5c:	00d66c63          	bltu	a2,a3,80005e74 <_free_r+0x2cc>
80005e60:	00f7d693          	srli	a3,a5,0xf
80005e64:	07868593          	addi	a1,a3,120
80005e68:	07768613          	addi	a2,a3,119
80005e6c:	00359593          	slli	a1,a1,0x3
80005e70:	e69ff06f          	j	80005cd8 <_free_r+0x130>
80005e74:	55400613          	li	a2,1364
80005e78:	00d66c63          	bltu	a2,a3,80005e90 <_free_r+0x2e8>
80005e7c:	0127d693          	srli	a3,a5,0x12
80005e80:	07d68593          	addi	a1,a3,125
80005e84:	07c68613          	addi	a2,a3,124
80005e88:	00359593          	slli	a1,a1,0x3
80005e8c:	e4dff06f          	j	80005cd8 <_free_r+0x130>
80005e90:	3f800593          	li	a1,1016
80005e94:	07e00613          	li	a2,126
80005e98:	e41ff06f          	j	80005cd8 <_free_r+0x130>
80005e9c:	0017e693          	ori	a3,a5,1
80005ea0:	00d72223          	sw	a3,4(a4)
80005ea4:	00f62023          	sw	a5,0(a2)
80005ea8:	dddff06f          	j	80005c84 <_free_r+0xdc>

80005eac <_lseek_r>:
80005eac:	ff010113          	addi	sp,sp,-16
80005eb0:	00058713          	mv	a4,a1
80005eb4:	00812423          	sw	s0,8(sp)
80005eb8:	00060593          	mv	a1,a2
80005ebc:	00050413          	mv	s0,a0
80005ec0:	00068613          	mv	a2,a3
80005ec4:	00070513          	mv	a0,a4
80005ec8:	0401aa23          	sw	zero,84(gp) # 80007e7c <errno>
80005ecc:	00112623          	sw	ra,12(sp)
80005ed0:	e7cfc0ef          	jal	ra,8000254c <_lseek>
80005ed4:	fff00793          	li	a5,-1
80005ed8:	00f50a63          	beq	a0,a5,80005eec <_lseek_r+0x40>
80005edc:	00c12083          	lw	ra,12(sp)
80005ee0:	00812403          	lw	s0,8(sp)
80005ee4:	01010113          	addi	sp,sp,16
80005ee8:	00008067          	ret
80005eec:	0541a783          	lw	a5,84(gp) # 80007e7c <errno>
80005ef0:	fe0786e3          	beqz	a5,80005edc <_lseek_r+0x30>
80005ef4:	00c12083          	lw	ra,12(sp)
80005ef8:	00f42023          	sw	a5,0(s0)
80005efc:	00812403          	lw	s0,8(sp)
80005f00:	01010113          	addi	sp,sp,16
80005f04:	00008067          	ret

80005f08 <__smakebuf_r>:
80005f08:	00c59783          	lh	a5,12(a1)
80005f0c:	f8010113          	addi	sp,sp,-128
80005f10:	06812c23          	sw	s0,120(sp)
80005f14:	06112e23          	sw	ra,124(sp)
80005f18:	06912a23          	sw	s1,116(sp)
80005f1c:	07212823          	sw	s2,112(sp)
80005f20:	07312623          	sw	s3,108(sp)
80005f24:	07412423          	sw	s4,104(sp)
80005f28:	0027f713          	andi	a4,a5,2
80005f2c:	00058413          	mv	s0,a1
80005f30:	02070c63          	beqz	a4,80005f68 <__smakebuf_r+0x60>
80005f34:	04358793          	addi	a5,a1,67
80005f38:	00f5a023          	sw	a5,0(a1)
80005f3c:	00f5a823          	sw	a5,16(a1)
80005f40:	00100793          	li	a5,1
80005f44:	00f5aa23          	sw	a5,20(a1)
80005f48:	07c12083          	lw	ra,124(sp)
80005f4c:	07812403          	lw	s0,120(sp)
80005f50:	07412483          	lw	s1,116(sp)
80005f54:	07012903          	lw	s2,112(sp)
80005f58:	06c12983          	lw	s3,108(sp)
80005f5c:	06812a03          	lw	s4,104(sp)
80005f60:	08010113          	addi	sp,sp,128
80005f64:	00008067          	ret
80005f68:	00e59583          	lh	a1,14(a1)
80005f6c:	00050493          	mv	s1,a0
80005f70:	0805cc63          	bltz	a1,80006008 <__smakebuf_r+0x100>
80005f74:	00810613          	addi	a2,sp,8
80005f78:	49c000ef          	jal	ra,80006414 <_fstat_r>
80005f7c:	08054463          	bltz	a0,80006004 <__smakebuf_r+0xfc>
80005f80:	00c12783          	lw	a5,12(sp)
80005f84:	0000f937          	lui	s2,0xf
80005f88:	00001a37          	lui	s4,0x1
80005f8c:	00f97933          	and	s2,s2,a5
80005f90:	ffffe7b7          	lui	a5,0xffffe
80005f94:	00f90933          	add	s2,s2,a5
80005f98:	00193913          	seqz	s2,s2
80005f9c:	40000993          	li	s3,1024
80005fa0:	800a0a13          	addi	s4,s4,-2048 # 800 <_reset-0x7ffff800>
80005fa4:	00098593          	mv	a1,s3
80005fa8:	00048513          	mv	a0,s1
80005fac:	a58fe0ef          	jal	ra,80004204 <_malloc_r>
80005fb0:	00c41783          	lh	a5,12(s0)
80005fb4:	06050e63          	beqz	a0,80006030 <__smakebuf_r+0x128>
80005fb8:	ffffe717          	auipc	a4,0xffffe
80005fbc:	87c70713          	addi	a4,a4,-1924 # 80003834 <_cleanup_r>
80005fc0:	02e4ae23          	sw	a4,60(s1)
80005fc4:	0807e793          	ori	a5,a5,128
80005fc8:	00f41623          	sh	a5,12(s0)
80005fcc:	00a42023          	sw	a0,0(s0)
80005fd0:	00a42823          	sw	a0,16(s0)
80005fd4:	01342a23          	sw	s3,20(s0)
80005fd8:	08091863          	bnez	s2,80006068 <__smakebuf_r+0x160>
80005fdc:	0147e7b3          	or	a5,a5,s4
80005fe0:	07c12083          	lw	ra,124(sp)
80005fe4:	00f41623          	sh	a5,12(s0)
80005fe8:	07812403          	lw	s0,120(sp)
80005fec:	07412483          	lw	s1,116(sp)
80005ff0:	07012903          	lw	s2,112(sp)
80005ff4:	06c12983          	lw	s3,108(sp)
80005ff8:	06812a03          	lw	s4,104(sp)
80005ffc:	08010113          	addi	sp,sp,128
80006000:	00008067          	ret
80006004:	00c41783          	lh	a5,12(s0)
80006008:	0807f793          	andi	a5,a5,128
8000600c:	00000913          	li	s2,0
80006010:	04078663          	beqz	a5,8000605c <__smakebuf_r+0x154>
80006014:	04000993          	li	s3,64
80006018:	00098593          	mv	a1,s3
8000601c:	00048513          	mv	a0,s1
80006020:	9e4fe0ef          	jal	ra,80004204 <_malloc_r>
80006024:	00c41783          	lh	a5,12(s0)
80006028:	00000a13          	li	s4,0
8000602c:	f80516e3          	bnez	a0,80005fb8 <__smakebuf_r+0xb0>
80006030:	2007f713          	andi	a4,a5,512
80006034:	f0071ae3          	bnez	a4,80005f48 <__smakebuf_r+0x40>
80006038:	ffc7f793          	andi	a5,a5,-4
8000603c:	0027e793          	ori	a5,a5,2
80006040:	04340713          	addi	a4,s0,67
80006044:	00f41623          	sh	a5,12(s0)
80006048:	00100793          	li	a5,1
8000604c:	00e42023          	sw	a4,0(s0)
80006050:	00e42823          	sw	a4,16(s0)
80006054:	00f42a23          	sw	a5,20(s0)
80006058:	ef1ff06f          	j	80005f48 <__smakebuf_r+0x40>
8000605c:	40000993          	li	s3,1024
80006060:	00000a13          	li	s4,0
80006064:	f41ff06f          	j	80005fa4 <__smakebuf_r+0x9c>
80006068:	00e41583          	lh	a1,14(s0)
8000606c:	00048513          	mv	a0,s1
80006070:	3fc000ef          	jal	ra,8000646c <_isatty_r>
80006074:	00051663          	bnez	a0,80006080 <__smakebuf_r+0x178>
80006078:	00c41783          	lh	a5,12(s0)
8000607c:	f61ff06f          	j	80005fdc <__smakebuf_r+0xd4>
80006080:	00c45783          	lhu	a5,12(s0)
80006084:	ffc7f793          	andi	a5,a5,-4
80006088:	0017e793          	ori	a5,a5,1
8000608c:	01079793          	slli	a5,a5,0x10
80006090:	4107d793          	srai	a5,a5,0x10
80006094:	f49ff06f          	j	80005fdc <__smakebuf_r+0xd4>

80006098 <__swhatbuf_r>:
80006098:	f9010113          	addi	sp,sp,-112
8000609c:	06812423          	sw	s0,104(sp)
800060a0:	00058413          	mv	s0,a1
800060a4:	00e59583          	lh	a1,14(a1)
800060a8:	06912223          	sw	s1,100(sp)
800060ac:	07212023          	sw	s2,96(sp)
800060b0:	06112623          	sw	ra,108(sp)
800060b4:	00060493          	mv	s1,a2
800060b8:	00068913          	mv	s2,a3
800060bc:	0405ca63          	bltz	a1,80006110 <__swhatbuf_r+0x78>
800060c0:	00810613          	addi	a2,sp,8
800060c4:	350000ef          	jal	ra,80006414 <_fstat_r>
800060c8:	04054463          	bltz	a0,80006110 <__swhatbuf_r+0x78>
800060cc:	00c12703          	lw	a4,12(sp)
800060d0:	0000f7b7          	lui	a5,0xf
800060d4:	06c12083          	lw	ra,108(sp)
800060d8:	00e7f7b3          	and	a5,a5,a4
800060dc:	ffffe737          	lui	a4,0xffffe
800060e0:	00e787b3          	add	a5,a5,a4
800060e4:	06812403          	lw	s0,104(sp)
800060e8:	0017b793          	seqz	a5,a5
800060ec:	00f92023          	sw	a5,0(s2) # f000 <_reset-0x7fff1000>
800060f0:	40000713          	li	a4,1024
800060f4:	00e4a023          	sw	a4,0(s1)
800060f8:	00001537          	lui	a0,0x1
800060fc:	06412483          	lw	s1,100(sp)
80006100:	06012903          	lw	s2,96(sp)
80006104:	80050513          	addi	a0,a0,-2048 # 800 <_reset-0x7ffff800>
80006108:	07010113          	addi	sp,sp,112
8000610c:	00008067          	ret
80006110:	00c45783          	lhu	a5,12(s0)
80006114:	0807f793          	andi	a5,a5,128
80006118:	02078863          	beqz	a5,80006148 <__swhatbuf_r+0xb0>
8000611c:	06c12083          	lw	ra,108(sp)
80006120:	06812403          	lw	s0,104(sp)
80006124:	00000793          	li	a5,0
80006128:	00f92023          	sw	a5,0(s2)
8000612c:	04000713          	li	a4,64
80006130:	00e4a023          	sw	a4,0(s1)
80006134:	06012903          	lw	s2,96(sp)
80006138:	06412483          	lw	s1,100(sp)
8000613c:	00000513          	li	a0,0
80006140:	07010113          	addi	sp,sp,112
80006144:	00008067          	ret
80006148:	06c12083          	lw	ra,108(sp)
8000614c:	06812403          	lw	s0,104(sp)
80006150:	00f92023          	sw	a5,0(s2)
80006154:	40000713          	li	a4,1024
80006158:	00e4a023          	sw	a4,0(s1)
8000615c:	06012903          	lw	s2,96(sp)
80006160:	06412483          	lw	s1,100(sp)
80006164:	00000513          	li	a0,0
80006168:	07010113          	addi	sp,sp,112
8000616c:	00008067          	ret

80006170 <_read_r>:
80006170:	ff010113          	addi	sp,sp,-16
80006174:	00058713          	mv	a4,a1
80006178:	00812423          	sw	s0,8(sp)
8000617c:	00060593          	mv	a1,a2
80006180:	00050413          	mv	s0,a0
80006184:	00068613          	mv	a2,a3
80006188:	00070513          	mv	a0,a4
8000618c:	0401aa23          	sw	zero,84(gp) # 80007e7c <errno>
80006190:	00112623          	sw	ra,12(sp)
80006194:	bfcfc0ef          	jal	ra,80002590 <_read>
80006198:	fff00793          	li	a5,-1
8000619c:	00f50a63          	beq	a0,a5,800061b0 <_read_r+0x40>
800061a0:	00c12083          	lw	ra,12(sp)
800061a4:	00812403          	lw	s0,8(sp)
800061a8:	01010113          	addi	sp,sp,16
800061ac:	00008067          	ret
800061b0:	0541a783          	lw	a5,84(gp) # 80007e7c <errno>
800061b4:	fe0786e3          	beqz	a5,800061a0 <_read_r+0x30>
800061b8:	00c12083          	lw	ra,12(sp)
800061bc:	00f42023          	sw	a5,0(s0)
800061c0:	00812403          	lw	s0,8(sp)
800061c4:	01010113          	addi	sp,sp,16
800061c8:	00008067          	ret

800061cc <cleanup_glue>:
800061cc:	fe010113          	addi	sp,sp,-32
800061d0:	01212823          	sw	s2,16(sp)
800061d4:	0005a903          	lw	s2,0(a1)
800061d8:	00812c23          	sw	s0,24(sp)
800061dc:	00912a23          	sw	s1,20(sp)
800061e0:	00112e23          	sw	ra,28(sp)
800061e4:	01312623          	sw	s3,12(sp)
800061e8:	01412423          	sw	s4,8(sp)
800061ec:	00058413          	mv	s0,a1
800061f0:	00050493          	mv	s1,a0
800061f4:	04090263          	beqz	s2,80006238 <cleanup_glue+0x6c>
800061f8:	00092983          	lw	s3,0(s2)
800061fc:	02098863          	beqz	s3,8000622c <cleanup_glue+0x60>
80006200:	0009aa03          	lw	s4,0(s3)
80006204:	000a0e63          	beqz	s4,80006220 <cleanup_glue+0x54>
80006208:	000a2583          	lw	a1,0(s4)
8000620c:	00058463          	beqz	a1,80006214 <cleanup_glue+0x48>
80006210:	fbdff0ef          	jal	ra,800061cc <cleanup_glue>
80006214:	000a0593          	mv	a1,s4
80006218:	00048513          	mv	a0,s1
8000621c:	98dff0ef          	jal	ra,80005ba8 <_free_r>
80006220:	00098593          	mv	a1,s3
80006224:	00048513          	mv	a0,s1
80006228:	981ff0ef          	jal	ra,80005ba8 <_free_r>
8000622c:	00090593          	mv	a1,s2
80006230:	00048513          	mv	a0,s1
80006234:	975ff0ef          	jal	ra,80005ba8 <_free_r>
80006238:	00040593          	mv	a1,s0
8000623c:	01812403          	lw	s0,24(sp)
80006240:	01c12083          	lw	ra,28(sp)
80006244:	01012903          	lw	s2,16(sp)
80006248:	00c12983          	lw	s3,12(sp)
8000624c:	00812a03          	lw	s4,8(sp)
80006250:	00048513          	mv	a0,s1
80006254:	01412483          	lw	s1,20(sp)
80006258:	02010113          	addi	sp,sp,32
8000625c:	94dff06f          	j	80005ba8 <_free_r>

80006260 <_reclaim_reent>:
80006260:	03c1a783          	lw	a5,60(gp) # 80007e64 <_impure_ptr>
80006264:	10a78a63          	beq	a5,a0,80006378 <_reclaim_reent+0x118>
80006268:	04c52583          	lw	a1,76(a0)
8000626c:	fe010113          	addi	sp,sp,-32
80006270:	00912a23          	sw	s1,20(sp)
80006274:	00112e23          	sw	ra,28(sp)
80006278:	00812c23          	sw	s0,24(sp)
8000627c:	01212823          	sw	s2,16(sp)
80006280:	01312623          	sw	s3,12(sp)
80006284:	00050493          	mv	s1,a0
80006288:	04058063          	beqz	a1,800062c8 <_reclaim_reent+0x68>
8000628c:	00000913          	li	s2,0
80006290:	08000993          	li	s3,128
80006294:	012587b3          	add	a5,a1,s2
80006298:	0007a403          	lw	s0,0(a5) # f000 <_reset-0x7fff1000>
8000629c:	00040e63          	beqz	s0,800062b8 <_reclaim_reent+0x58>
800062a0:	00040593          	mv	a1,s0
800062a4:	00042403          	lw	s0,0(s0)
800062a8:	00048513          	mv	a0,s1
800062ac:	8fdff0ef          	jal	ra,80005ba8 <_free_r>
800062b0:	fe0418e3          	bnez	s0,800062a0 <_reclaim_reent+0x40>
800062b4:	04c4a583          	lw	a1,76(s1)
800062b8:	00490913          	addi	s2,s2,4
800062bc:	fd391ce3          	bne	s2,s3,80006294 <_reclaim_reent+0x34>
800062c0:	00048513          	mv	a0,s1
800062c4:	8e5ff0ef          	jal	ra,80005ba8 <_free_r>
800062c8:	0404a583          	lw	a1,64(s1)
800062cc:	00058663          	beqz	a1,800062d8 <_reclaim_reent+0x78>
800062d0:	00048513          	mv	a0,s1
800062d4:	8d5ff0ef          	jal	ra,80005ba8 <_free_r>
800062d8:	1484a403          	lw	s0,328(s1)
800062dc:	02040063          	beqz	s0,800062fc <_reclaim_reent+0x9c>
800062e0:	14c48913          	addi	s2,s1,332
800062e4:	01240c63          	beq	s0,s2,800062fc <_reclaim_reent+0x9c>
800062e8:	00040593          	mv	a1,s0
800062ec:	00042403          	lw	s0,0(s0)
800062f0:	00048513          	mv	a0,s1
800062f4:	8b5ff0ef          	jal	ra,80005ba8 <_free_r>
800062f8:	fe8918e3          	bne	s2,s0,800062e8 <_reclaim_reent+0x88>
800062fc:	0544a583          	lw	a1,84(s1)
80006300:	00058663          	beqz	a1,8000630c <_reclaim_reent+0xac>
80006304:	00048513          	mv	a0,s1
80006308:	8a1ff0ef          	jal	ra,80005ba8 <_free_r>
8000630c:	0384a783          	lw	a5,56(s1)
80006310:	04078663          	beqz	a5,8000635c <_reclaim_reent+0xfc>
80006314:	03c4a783          	lw	a5,60(s1)
80006318:	00048513          	mv	a0,s1
8000631c:	000780e7          	jalr	a5
80006320:	2e04a403          	lw	s0,736(s1)
80006324:	02040c63          	beqz	s0,8000635c <_reclaim_reent+0xfc>
80006328:	00042583          	lw	a1,0(s0)
8000632c:	00058663          	beqz	a1,80006338 <_reclaim_reent+0xd8>
80006330:	00048513          	mv	a0,s1
80006334:	e99ff0ef          	jal	ra,800061cc <cleanup_glue>
80006338:	00040593          	mv	a1,s0
8000633c:	01812403          	lw	s0,24(sp)
80006340:	01c12083          	lw	ra,28(sp)
80006344:	01012903          	lw	s2,16(sp)
80006348:	00c12983          	lw	s3,12(sp)
8000634c:	00048513          	mv	a0,s1
80006350:	01412483          	lw	s1,20(sp)
80006354:	02010113          	addi	sp,sp,32
80006358:	851ff06f          	j	80005ba8 <_free_r>
8000635c:	01c12083          	lw	ra,28(sp)
80006360:	01812403          	lw	s0,24(sp)
80006364:	01412483          	lw	s1,20(sp)
80006368:	01012903          	lw	s2,16(sp)
8000636c:	00c12983          	lw	s3,12(sp)
80006370:	02010113          	addi	sp,sp,32
80006374:	00008067          	ret
80006378:	00008067          	ret

8000637c <__register_exitproc>:
8000637c:	0301a703          	lw	a4,48(gp) # 80007e58 <_global_impure_ptr>
80006380:	14872783          	lw	a5,328(a4) # ffffe148 <__BSS_END__+0x7fff6284>
80006384:	04078c63          	beqz	a5,800063dc <__register_exitproc+0x60>
80006388:	0047a703          	lw	a4,4(a5)
8000638c:	01f00813          	li	a6,31
80006390:	06e84e63          	blt	a6,a4,8000640c <__register_exitproc+0x90>
80006394:	00271813          	slli	a6,a4,0x2
80006398:	02050663          	beqz	a0,800063c4 <__register_exitproc+0x48>
8000639c:	01078333          	add	t1,a5,a6
800063a0:	08c32423          	sw	a2,136(t1)
800063a4:	1887a883          	lw	a7,392(a5)
800063a8:	00100613          	li	a2,1
800063ac:	00e61633          	sll	a2,a2,a4
800063b0:	00c8e8b3          	or	a7,a7,a2
800063b4:	1917a423          	sw	a7,392(a5)
800063b8:	10d32423          	sw	a3,264(t1)
800063bc:	00200693          	li	a3,2
800063c0:	02d50463          	beq	a0,a3,800063e8 <__register_exitproc+0x6c>
800063c4:	00170713          	addi	a4,a4,1
800063c8:	00e7a223          	sw	a4,4(a5)
800063cc:	010787b3          	add	a5,a5,a6
800063d0:	00b7a423          	sw	a1,8(a5)
800063d4:	00000513          	li	a0,0
800063d8:	00008067          	ret
800063dc:	14c70793          	addi	a5,a4,332
800063e0:	14f72423          	sw	a5,328(a4)
800063e4:	fa5ff06f          	j	80006388 <__register_exitproc+0xc>
800063e8:	18c7a683          	lw	a3,396(a5)
800063ec:	00170713          	addi	a4,a4,1
800063f0:	00e7a223          	sw	a4,4(a5)
800063f4:	00c6e6b3          	or	a3,a3,a2
800063f8:	18d7a623          	sw	a3,396(a5)
800063fc:	010787b3          	add	a5,a5,a6
80006400:	00b7a423          	sw	a1,8(a5)
80006404:	00000513          	li	a0,0
80006408:	00008067          	ret
8000640c:	fff00513          	li	a0,-1
80006410:	00008067          	ret

80006414 <_fstat_r>:
80006414:	ff010113          	addi	sp,sp,-16
80006418:	00058713          	mv	a4,a1
8000641c:	00812423          	sw	s0,8(sp)
80006420:	00060593          	mv	a1,a2
80006424:	00050413          	mv	s0,a0
80006428:	00070513          	mv	a0,a4
8000642c:	0401aa23          	sw	zero,84(gp) # 80007e7c <errno>
80006430:	00112623          	sw	ra,12(sp)
80006434:	9a0fc0ef          	jal	ra,800025d4 <_fstat>
80006438:	fff00793          	li	a5,-1
8000643c:	00f50a63          	beq	a0,a5,80006450 <_fstat_r+0x3c>
80006440:	00c12083          	lw	ra,12(sp)
80006444:	00812403          	lw	s0,8(sp)
80006448:	01010113          	addi	sp,sp,16
8000644c:	00008067          	ret
80006450:	0541a783          	lw	a5,84(gp) # 80007e7c <errno>
80006454:	fe0786e3          	beqz	a5,80006440 <_fstat_r+0x2c>
80006458:	00c12083          	lw	ra,12(sp)
8000645c:	00f42023          	sw	a5,0(s0)
80006460:	00812403          	lw	s0,8(sp)
80006464:	01010113          	addi	sp,sp,16
80006468:	00008067          	ret

8000646c <_isatty_r>:
8000646c:	ff010113          	addi	sp,sp,-16
80006470:	00812423          	sw	s0,8(sp)
80006474:	00050413          	mv	s0,a0
80006478:	00058513          	mv	a0,a1
8000647c:	0401aa23          	sw	zero,84(gp) # 80007e7c <errno>
80006480:	00112623          	sw	ra,12(sp)
80006484:	990fc0ef          	jal	ra,80002614 <_isatty>
80006488:	fff00793          	li	a5,-1
8000648c:	00f50a63          	beq	a0,a5,800064a0 <_isatty_r+0x34>
80006490:	00c12083          	lw	ra,12(sp)
80006494:	00812403          	lw	s0,8(sp)
80006498:	01010113          	addi	sp,sp,16
8000649c:	00008067          	ret
800064a0:	0541a783          	lw	a5,84(gp) # 80007e7c <errno>
800064a4:	fe0786e3          	beqz	a5,80006490 <_isatty_r+0x24>
800064a8:	00c12083          	lw	ra,12(sp)
800064ac:	00f42023          	sw	a5,0(s0)
800064b0:	00812403          	lw	s0,8(sp)
800064b4:	01010113          	addi	sp,sp,16
800064b8:	00008067          	ret

800064bc <_exit>:
800064bc:	0000006f          	j	800064bc <_exit>

Disassembly of section .text.init:

80000000 <_reset>:
	.section ".text.init"
	.globl	_reset

_reset:
	li	sp, 0x800f0000
80000000:	800f0137          	lui	sp,0x800f0
	// so that the program ends if the value is used
#if __riscv_xlen == 64
	sd	zero, 0(sp)
	sd	zero, -8(sp)
#else
	sw	zero, 0(sp)
80000004:	00012023          	sw	zero,0(sp) # 800f0000 <__BSS_END__+0xe813c>
	sw	zero, -4(sp)
80000008:	fe012e23          	sw	zero,-4(sp)
#endif
	// Set MSTATUS
	// Enable MIE and SIE
	// Set FS to 2 = Dirty
	li      s0, 0x600a
8000000c:	00006437          	lui	s0,0x6
80000010:	00a40413          	addi	s0,s0,10 # 600a <_reset-0x7fff9ff6>
	csrw    mstatus, s0
80000014:	30041073          	csrw	mstatus,s0
	// Set MTVEC to an address (also to 0x800f0000?)
	// and place an illegal instruction (0) at that location
	// so that the program ends if there is a trap
	li	s0, 0x800f0000
80000018:	800f0437          	lui	s0,0x800f0
#if __riscv_xlen == 64
	sd	zero, 0xC0(s0)
#else
	sw	zero, 0xC0(s0)
8000001c:	0c042023          	sw	zero,192(s0) # 800f00c0 <__BSS_END__+0xe81fc>
#endif
	csrw	mtvec, s0
80000020:	30541073          	csrw	mtvec,s0
#endif

	/* zero out the bss */
	.option push
	.option norelax
        la      t1, __bss_start
80000024:	00008317          	auipc	t1,0x8
80000028:	e4c30313          	addi	t1,t1,-436 # 80007e70 <__malloc_max_total_mem>
        la      t2, _end
8000002c:	00008397          	auipc	t2,0x8
80000030:	e9838393          	addi	t2,t2,-360 # 80007ec4 <__BSS_END__>

80000034 <zinit>:
#if __riscv_xlen == 64
zinit:  sd      zero, 0(t1)
        add     t1, t1, 0x8
        bne     t1, t2, zinit
#else
zinit:  sw      zero, 0(t1)
80000034:	00032023          	sw	zero,0(t1)
        add     t1, t1, 0x4
80000038:	00430313          	addi	t1,t1,4
        bne     t1, t2, zinit
8000003c:	fe731ce3          	bne	t1,t2,80000034 <zinit>
	.option pop

	// TODO: Use xRET to switch to S or U mode?
	// TODO: (Previous version for v1.7 priv spec set PRV to S
	// TODO: when setting the MSTATUS above.)
	j _start
80000040:	09c0206f          	j	800020dc <_start>
